     1 00000000                                 ; haribote-ipl
     2 00000000                                 ; TAB=4
     3 00000000                                 
     4  = 00000009                              CYLS	EQU		9
     5 00000000                                 
     6                                          		ORG		0x7c00			; location which this program located in memory
     7 00007C00                                 
     8 00007C00                                 ; FAT12 Format
     9 00007C00 EB 4E                           		JMP		entry
    10 00007C02 90                              		DB		0x90
    11 00007C03 48 41 52 49 42 4F 54 45         		DB		"HARIBOTE"		; Bootsector name
    12 00007C0B 0200                            		DW		512				; size of 1 sector
    13 00007C0D 01                              		DB		1				; size of cluster (1 sector/cluster)
    14 00007C0E 0001                            		DW		1				; numbers of reserved sectors
    15 00007C10 02                              		DB		2				; numbers of FAT tables
    16 00007C11 00E0                            		DW		224				; numbers of Entry for root directory
    17 00007C13 0B40                            		DW		2880				; total numbers of sector in disk
    18 00007C15 F0                              		DB		0xf0				; midea type
    19 00007C16 0009                            		DW		9				; numbers of sector for one FAT table
    20 00007C18 0012                            		DW		18				; numbers of sector for one track
    21 00007C1A 0002                            		DW		2				; numbers of head
    22 00007C1C 00000000                        		DD		0				; we don't use partition
    23 00007C20 00000B40                        		DD		2880				; drive size
    24 00007C24 00 00 29                        		DB		0, 0, 0x29			; what..?
    25 00007C27 FFFFFFFF                        		DD		0xffffffff			; volume serial number
    26 00007C2B 48 41 52 49 42 4F 54 45 4F 53   		DB		"HARIBOTEOS "			; name of disk
       00007C35 20 
    27 00007C36 46 41 54 31 32 20 20 20         		DB		"FAT12   "			; name of format(8bytes)
    28 00007C3E 00 00 00 00 00 00 00 00 00 00   		RESB	18				; remain 18bytes
       00007C48 00 00 00 00 00 00 00 00 
    29 00007C50                                 
    30 00007C50                                 ; Program body
    31 00007C50                                 
    32 00007C50                                 entry:
    33 00007C50 B8 0000                         		MOV		AX, 0		; Register initialization
    34 00007C53 8E D0                           		MOV		SS, AX
    35 00007C55 BC 7C00                         		MOV		SP, 0x7c00
    36 00007C58 8E D8                           		MOV		DS, AX
    37 00007C5A                                 
    38 00007C5A B8 0820                         		MOV 	AX, 0x0820
    39 00007C5D 8E C0                           		MOV		ES, AX
    40 00007C5F B5 00                           		MOV		CH, 0				; cylinder 0
    41 00007C61 B6 00                           		MOV 	DH, 0				; head 0
    42 00007C63 B1 02                           		MOV 	CL, 2				; sector 2
    43 00007C65 BB 0143                         		MOV		BX, 18*2*CYLS-1		; total sector numbers
    44 00007C68 E8 0033                         		CALL	readfast
    45 00007C6B                                 
    46 00007C6B                                 		; Run haribote.sys
    47 00007C6B C6 06 0FF0 09                   		MOV 	BYTE [0x0ff0], CYLS
    48 00007C70 E9 458D                         		JMP 	0xc200
    49 00007C73                                 
    50 00007C73                                 error:
    51 00007C73 B8 0000                         		MOV 	AX, 0
    52 00007C76 8E C0                           		MOV 	ES, AX
    53 00007C78 BE 7C90                         		MOV		SI, msg
    54 00007C7B                                 putloop:
    55 00007C7B 8A 04                           		MOV		AL, [SI]
    56 00007C7D 83 C6 01                        		ADD		SI, 1
    57 00007C80 3C 00                           		CMP		AL, 0
    58 00007C82 74 09                           		JE		fin
    59 00007C84 B4 0E                           		MOV		AH, 0x0e		; character print
    60 00007C86 BB 000F                         		MOV		BX, 15			; collor code
    61 00007C89 CD 10                           		INT		0x10			; video BIOS
    62 00007C8B EB EE                           		JMP 	putloop
    63 00007C8D                                 
    64 00007C8D                                 fin:
    65 00007C8D F4                              		HLT					; halt CPU
    66 00007C8E EB FD                           		JMP 	fin
    67 00007C90                                 
    68 00007C90                                 msg:
    69 00007C90 0A 0A                           		DB		0x0a, 0x0a		; two line break
    70 00007C92 6C 6F 61 64 20 65 72 72 6F 72   		DB		"load error"
    71 00007C9C 0A                              		DB		0x0a
    72 00007C9D 00                              		DB 		0
    73 00007C9E                                 
    74 00007C9E                                 readfast:
    75 00007C9E                                 		; ES: read address, CH: Cylinder, DH: Head, CL: Sector, BX: Numbers of read sectors
    76 00007C9E 8C C0                           		MOV 	AX, ES		; calculate max AL from the ES
    77 00007CA0 C1 E0 03                        		SHL 	AX, 3		; AH = AX / 32
    78 00007CA3 80 E4 7F                        		AND 	AH, 0x7f	; AH = AH % 128
    79 00007CA6 B0 80                           		MOV 	AL, 128		; AL = 128 - AH
    80 00007CA8 28 E0                           		SUB 	AL, AH
    81 00007CAA                                 
    82 00007CAA 88 DC                           		MOV 	AH, BL		; store the result of MAX AL in AH
    83 00007CAC 80 FF 00                        		CMP 	BH, 0		; if (BH != 0) { AH = 18; }
    84 00007CAF 74 02                           		JE 		.skip1
    85 00007CB1 B4 12                           		MOV 	AH, 18
    86 00007CB3                                 .skip1:
    87 00007CB3 38 E0                           		CMP 	AL, AH		; if (AL > AH) { AL = AH; }
    88 00007CB5 76 02                           		JBE 	.skip2
    89 00007CB7 88 E0                           		MOV 	AL, AH
    90 00007CB9                                 .skip2:
    91 00007CB9 B4 13                           		MOV 	AH, 19		; calculate Max AL from CL
    92 00007CBB 28 CC                           		SUB 	AH, CL		; AH = 19 - CL
    93 00007CBD 38 E0                           		CMP 	AL, AH		; if (AL > AH) { AL = AH; }
    94 00007CBF 76 02                           		JBE 	.skip3
    95 00007CC1 88 E0                           		MOV 	AL, AH
    96 00007CC3                                 .skip3:
    97 00007CC3 53                              		PUSH	BX
    98 00007CC4 BE 0000                         		MOV 	SI, 0		; count fail
    99 00007CC7                                 	
   100 00007CC7                                 retry:
   101 00007CC7 B4 02                           		MOV 	AH, 0x02	; AH = 0x02 -> read disk
   102 00007CC9 BB 0000                         		MOV 	BX, 0
   103 00007CCC B2 00                           		MOV		DL, 0x00	; A drive
   104 00007CCE 06                              		PUSH	ES
   105 00007CCF 52                              		PUSH	DX
   106 00007CD0 51                              		PUSH	CX
   107 00007CD1 50                              		PUSH	AX
   108 00007CD2 CD 13                           		INT		0x13		; call DISK BIOS
   109 00007CD4 73 14                           		JNC		next		; No error, jump to fin
   110 00007CD6 83 C6 01                        		ADD		SI, 1
   111 00007CD9 83 FE 05                        		CMP		SI, 5		; if SI >= 5, then go to error
   112 00007CDC 73 95                           		JAE 	error
   113 00007CDE B4 00                           		MOV		AH, 0x00
   114 00007CE0 B2 00                           		MOV		DL, 0x00	; A drive
   115 00007CE2 CD 13                           		INT		0x13		; drive reset
   116 00007CE4 58                              		POP 	AX
   117 00007CE5 59                              		POP 	CX
   118 00007CE6 5A                              		POP 	DX
   119 00007CE7 07                              		POP 	ES
   120 00007CE8 EB DD                           		JMP		retry
   121 00007CEA                                 next:
   122 00007CEA 58                              		POP 	AX
   123 00007CEB 59                              		POP 	CX
   124 00007CEC 5A                              		POP 	DX
   125 00007CED 5B                              		POP 	BX			; store ES in BX
   126 00007CEE C1 EB 05                        		SHR 	BX, 5		; BX : 16bytes -> 512bytes
   127 00007CF1 B4 00                           		MOV 	AH, 0
   128 00007CF3 01 C3                           		ADD 	BX, AX		; BX += AL
   129 00007CF5 C1 E3 05                        		SHL 	BX, 5		; BX : 512bytes -> 16bytes
   130 00007CF8 8E C3                           		MOV 	ES, BX		; ES += AL * 0x20
   131 00007CFA 5B                              		POP 	BX
   132 00007CFB 29 C3                           		SUB 	BX, AX
   133 00007CFD 74 18                           		JZ  	.ret
   134 00007CFF 00 C1                           		ADD 	CL, AL		; CL += AL
   135 00007D01 80 F9 12                        		CMP 	CL, 18		; if (CL <= 18)
   136 00007D04 76 98                           		JBE 	readfast	; jump to readfast
   137 00007D06 B1 01                           		MOV 	CL, 1
   138 00007D08 80 C6 01                        		ADD 	DH, 1
   139 00007D0B 80 FE 02                        		CMP 	DH, 2		; if (DH < 2)
   140 00007D0E 72 8E                           		JB  	readfast	; jump to readfast
   141 00007D10 B6 00                           		MOV 	DH, 0
   142 00007D12 80 C5 01                        		ADD 	CH, 1
   143 00007D15 EB 87                           		JMP 	readfast
   144 00007D17                                 .ret:
   145 00007D17 C3                              		RET
   146 00007D18                                 
   147 00007D18 00 00 00 00 00 00 00 00 00 00   		RESB 	0x7dfe-$
       00007D22 00 00 00 00 00 00 00 00 00 00 
       00007D2C 00 00 00 00 00 00 00 00 00 00 
       00007D36 00 00 00 00 00 00 00 00 00 00 
       00007D40 00 00 00 00 00 00 00 00 00 00 
       00007D4A 00 00 00 00 00 00 00 00 00 00 
       00007D54 00 00 00 00 00 00 00 00 00 00 
       00007D5E 00 00 00 00 00 00 00 00 00 00 
       00007D68 00 00 00 00 00 00 00 00 00 00 
       00007D72 00 00 00 00 00 00 00 00 00 00 
       00007D7C 00 00 00 00 00 00 00 00 00 00 
       00007D86 00 00 00 00 00 00 00 00 00 00 
       00007D90 00 00 00 00 00 00 00 00 00 00 
       00007D9A 00 00 00 00 00 00 00 00 00 00 
       00007DA4 00 00 00 00 00 00 00 00 00 00 
       00007DAE 00 00 00 00 00 00 00 00 00 00 
       00007DB8 00 00 00 00 00 00 00 00 00 00 
       00007DC2 00 00 00 00 00 00 00 00 00 00 
       00007DCC 00 00 00 00 00 00 00 00 00 00 
       00007DD6 00 00 00 00 00 00 00 00 00 00 
       00007DE0 00 00 00 00 00 00 00 00 00 00 
       00007DEA 00 00 00 00 00 00 00 00 00 00 
       00007DF4 00 00 00 00 00 00 00 00 00 00 
   148 00007DFE                                 		
   149 00007DFE 55 AA                           		DB  	0x55, 0xaa
