     1 00000000                                 [FORMAT "WCOFF"]
     2 00000000                                 [INSTRSET "i486p"]
     3 00000000                                 [OPTIMIZE 1]
     4 00000000                                 [OPTION 1]
     5 00000000                                 [BITS 32]
     6 00000000                                 	EXTERN	_putfonts
     7 00000000                                 	EXTERN	_boxfill8
     8 00000000                                 	EXTERN	_sheet_refresh
     9 00000000                                 	EXTERN	_cons_putstr
    10 00000000                                 [FILE "hangul.c"]
    11 00000000                                 	GLOBAL	_HangulCode
    12                                          [SECTION .data]
    13 00000000                                 _HangulCode:
    14 00000000 00                              	DB	0
    15 00000001 00                              	DB	0
    16 00000002 01                              	DB	1
    17 00000003 02                              	DB	2
    18 00000004 03                              	DB	3
    19 00000005 04                              	DB	4
    20 00000006 05                              	DB	5
    21 00000007 06                              	DB	6
    22 00000008 07                              	DB	7
    23 00000009 08                              	DB	8
    24 0000000A 09                              	DB	9
    25 0000000B 0A                              	DB	10
    26 0000000C 0B                              	DB	11
    27 0000000D 0C                              	DB	12
    28 0000000E 0D                              	DB	13
    29 0000000F 0E                              	DB	14
    30 00000010 0F                              	DB	15
    31 00000011 10                              	DB	16
    32 00000012 11                              	DB	17
    33 00000013 12                              	DB	18
    34 00000014 13                              	DB	19
    35 00000015 00                              	DB	0
    36 00000016 00                              	DB	0
    37 00000017 00                              	DB	0
    38 00000018 00                              	DB	0
    39 00000019 00                              	DB	0
    40 0000001A 00                              	DB	0
    41 0000001B 00                              	DB	0
    42 0000001C 00                              	DB	0
    43 0000001D 00                              	DB	0
    44 0000001E 00                              	DB	0
    45 0000001F 00                              	DB	0
    46 00000020 00                              	DB	0
    47 00000021 00                              	DB	0
    48 00000022 00                              	DB	0
    49 00000023 01                              	DB	1
    50 00000024 02                              	DB	2
    51 00000025 03                              	DB	3
    52 00000026 04                              	DB	4
    53 00000027 05                              	DB	5
    54 00000028 00                              	DB	0
    55 00000029 00                              	DB	0
    56 0000002A 06                              	DB	6
    57 0000002B 07                              	DB	7
    58 0000002C 08                              	DB	8
    59 0000002D 09                              	DB	9
    60 0000002E 0A                              	DB	10
    61 0000002F 0B                              	DB	11
    62 00000030 00                              	DB	0
    63 00000031 00                              	DB	0
    64 00000032 0C                              	DB	12
    65 00000033 0D                              	DB	13
    66 00000034 0E                              	DB	14
    67 00000035 0F                              	DB	15
    68 00000036 10                              	DB	16
    69 00000037 11                              	DB	17
    70 00000038 00                              	DB	0
    71 00000039 00                              	DB	0
    72 0000003A 12                              	DB	18
    73 0000003B 13                              	DB	19
    74 0000003C 14                              	DB	20
    75 0000003D 15                              	DB	21
    76 0000003E 00                              	DB	0
    77 0000003F 00                              	DB	0
    78 00000040 00                              	DB	0
    79 00000041 00                              	DB	0
    80 00000042 01                              	DB	1
    81 00000043 02                              	DB	2
    82 00000044 03                              	DB	3
    83 00000045 04                              	DB	4
    84 00000046 05                              	DB	5
    85 00000047 06                              	DB	6
    86 00000048 07                              	DB	7
    87 00000049 08                              	DB	8
    88 0000004A 09                              	DB	9
    89 0000004B 0A                              	DB	10
    90 0000004C 0B                              	DB	11
    91 0000004D 0C                              	DB	12
    92 0000004E 0D                              	DB	13
    93 0000004F 0E                              	DB	14
    94 00000050 0F                              	DB	15
    95 00000051 10                              	DB	16
    96 00000052 00                              	DB	0
    97 00000053 11                              	DB	17
    98 00000054 12                              	DB	18
    99 00000055 13                              	DB	19
   100 00000056 14                              	DB	20
   101 00000057 15                              	DB	21
   102 00000058 16                              	DB	22
   103 00000059 17                              	DB	23
   104 0000005A 18                              	DB	24
   105 0000005B 19                              	DB	25
   106 0000005C 1A                              	DB	26
   107 0000005D 1B                              	DB	27
   108 0000005E 00                              	DB	0
   109 0000005F 00                              	DB	0
   110 00000060                                 	GLOBAL	_First
   111 00000060                                 _First:
   112 00000060 00                              	DB	0
   113 00000061 00                              	DB	0
   114 00000062 01                              	DB	1
   115 00000063 01                              	DB	1
   116 00000064 01                              	DB	1
   117 00000065 01                              	DB	1
   118 00000066 01                              	DB	1
   119 00000067 01                              	DB	1
   120 00000068 01                              	DB	1
   121 00000069 01                              	DB	1
   122 0000006A 01                              	DB	1
   123 0000006B 01                              	DB	1
   124 0000006C 01                              	DB	1
   125 0000006D 01                              	DB	1
   126 0000006E 01                              	DB	1
   127 0000006F 01                              	DB	1
   128 00000070 00                              	DB	0
   129 00000071 01                              	DB	1
   130 00000072 01                              	DB	1
   131 00000073 01                              	DB	1
   132 00000074 00                              	DB	0
   133 00000075 02                              	DB	2
   134 00000076 03                              	DB	3
   135 00000077 03                              	DB	3
   136 00000078 03                              	DB	3
   137 00000079 03                              	DB	3
   138 0000007A 03                              	DB	3
   139 0000007B 03                              	DB	3
   140 0000007C 03                              	DB	3
   141 0000007D 03                              	DB	3
   142 0000007E 03                              	DB	3
   143 0000007F 03                              	DB	3
   144 00000080 03                              	DB	3
   145 00000081 03                              	DB	3
   146 00000082 03                              	DB	3
   147 00000083 03                              	DB	3
   148 00000084 02                              	DB	2
   149 00000085 03                              	DB	3
   150 00000086 03                              	DB	3
   151 00000087 03                              	DB	3
   152 00000088                                 	GLOBAL	_Middle
   153 00000088                                 _Middle:
   154 00000088 00                              	DB	0
   155 00000089 00                              	DB	0
   156 0000008A 02                              	DB	2
   157 0000008B 00                              	DB	0
   158 0000008C 02                              	DB	2
   159 0000008D 01                              	DB	1
   160 0000008E 02                              	DB	2
   161 0000008F 01                              	DB	1
   162 00000090 02                              	DB	2
   163 00000091 03                              	DB	3
   164 00000092 00                              	DB	0
   165 00000093 02                              	DB	2
   166 00000094 01                              	DB	1
   167 00000095 03                              	DB	3
   168 00000096 03                              	DB	3
   169 00000097 01                              	DB	1
   170 00000098 02                              	DB	2
   171 00000099 01                              	DB	1
   172 0000009A 03                              	DB	3
   173 0000009B 03                              	DB	3
   174 0000009C 01                              	DB	1
   175 0000009D 01                              	DB	1
   176 0000009E 00                              	DB	0
   177 0000009F 00                              	DB	0
   178 000000A0 00                              	DB	0
   179 000000A1 00                              	DB	0
   180 000000A2 00                              	DB	0
   181 000000A3 00                              	DB	0
   182 000000A4 00                              	DB	0
   183 000000A5 00                              	DB	0
   184 000000A6 00                              	DB	0
   185 000000A7 01                              	DB	1
   186 000000A8 03                              	DB	3
   187 000000A9 03                              	DB	3
   188 000000AA 03                              	DB	3
   189 000000AB 01                              	DB	1
   190 000000AC 02                              	DB	2
   191 000000AD 04                              	DB	4
   192 000000AE 04                              	DB	4
   193 000000AF 04                              	DB	4
   194 000000B0 02                              	DB	2
   195 000000B1 01                              	DB	1
   196 000000B2 03                              	DB	3
   197 000000B3 00                              	DB	0
   198 000000B4 00                              	DB	0
   199 000000B5 05                              	DB	5
   200 000000B6 05                              	DB	5
   201 000000B7 05                              	DB	5
   202 000000B8 05                              	DB	5
   203 000000B9 05                              	DB	5
   204 000000BA 05                              	DB	5
   205 000000BB 05                              	DB	5
   206 000000BC 05                              	DB	5
   207 000000BD 06                              	DB	6
   208 000000BE 07                              	DB	7
   209 000000BF 07                              	DB	7
   210 000000C0 07                              	DB	7
   211 000000C1 06                              	DB	6
   212 000000C2 06                              	DB	6
   213 000000C3 07                              	DB	7
   214 000000C4 07                              	DB	7
   215 000000C5 07                              	DB	7
   216 000000C6 06                              	DB	6
   217 000000C7 06                              	DB	6
   218 000000C8 07                              	DB	7
   219 000000C9 05                              	DB	5
   220                                          [SECTION .text]
   221 00000000                                 	GLOBAL	_put_johab
   222 00000000                                 _put_johab:
   223 00000000 55                              	PUSH	EBP
   224 00000001 89 E5                           	MOV	EBP,ESP
   225 00000003 57                              	PUSH	EDI
   226 00000004 56                              	PUSH	ESI
   227 00000005 53                              	PUSH	EBX
   228 00000006 83 EC 1C                        	SUB	ESP,28
   229 00000009 8A 45 18                        	MOV	AL,BYTE [24+EBP]
   230 0000000C 8B 55 20                        	MOV	EDX,DWORD [32+EBP]
   231 0000000F 88 45 F3                        	MOV	BYTE [-13+EBP],AL
   232 00000012 0F B6 C6                        	MOVZX	EAX,DH
   233 00000015 89 C3                           	MOV	EBX,EAX
   234 00000017 83 E0 03                        	AND	EAX,3
   235 0000001A 0F B6 D2                        	MOVZX	EDX,DL
   236 0000001D 8D 0C C5 00000000               	LEA	ECX,DWORD [0+EAX*8]
   237 00000024 83 E3 7C                        	AND	EBX,124
   238 00000027 C1 FB 02                        	SAR	EBX,2
   239 0000002A 89 D0                           	MOV	EAX,EDX
   240 0000002C C1 E8 05                        	SHR	EAX,5
   241 0000002F 83 E2 1F                        	AND	EDX,31
   242 00000032 09 C1                           	OR	ECX,EAX
   243 00000034 0F B6 92 [00000040]             	MOVZX	EDX,BYTE [_HangulCode+64+EDX]
   244 0000003B 85 D2                           	TEST	EDX,EDX
   245 0000003D 89 55 EC                        	MOV	DWORD [-20+EBP],EDX
   246 00000040 0F 95 C0                        	SETNE	AL
   247 00000043 0F B6 F8                        	MOVZX	EDI,AL
   248 00000046 6B C7 16                        	IMUL	EAX,EDI,22
   249 00000049 6B D7 14                        	IMUL	EDX,EDI,20
   250 0000004C 0F B6 B3 [00000000]             	MOVZX	ESI,BYTE [_HangulCode+EBX]
   251 00000053 0F B6 99 [00000020]             	MOVZX	EBX,BYTE [_HangulCode+32+ECX]
   252 0000005A 0F B6 94 16 [00000060]          	MOVZX	EDX,BYTE [_First+ESI+EDX*1]
   253 00000062 0F B6 84 03 [0000009E]          	MOVZX	EAX,BYTE [_Middle+22+EBX+EAX*1]
   254 0000006A 6B C0 14                        	IMUL	EAX,EAX,20
   255 0000006D 0F B6 8B [00000088]             	MOVZX	ECX,BYTE [_Middle+EBX]
   256 00000074 6B C9 1C                        	IMUL	ECX,ECX,28
   257 00000077 6B D2 16                        	IMUL	EDX,EDX,22
   258 0000007A 01 F0                           	ADD	EAX,ESI
   259 0000007C 01 DA                           	ADD	EDX,EBX
   260 0000007E C1 E0 05                        	SAL	EAX,5
   261 00000081 03 4D EC                        	ADD	ECX,DWORD [-20+EBP]
   262 00000084 C1 E2 05                        	SAL	EDX,5
   263 00000087 C1 E1 05                        	SAL	ECX,5
   264 0000008A 03 45 1C                        	ADD	EAX,DWORD [28+EBP]
   265 0000008D 89 45 E8                        	MOV	DWORD [-24+EBP],EAX
   266 00000090 8B 45 1C                        	MOV	EAX,DWORD [28+EBP]
   267 00000093 8D 94 02 00001400               	LEA	EDX,DWORD [5120+EDX+EAX*1]
   268 0000009A 8D 8C 01 00001F00               	LEA	ECX,DWORD [7936+ECX+EAX*1]
   269 000000A1 89 55 E4                        	MOV	DWORD [-28+EBP],EDX
   270 000000A4 89 4D E0                        	MOV	DWORD [-32+EBP],ECX
   271 000000A7 31 D2                           	XOR	EDX,EDX
   272 000000A9                                 L14:
   273 000000A9 8B 4D E4                        	MOV	ECX,DWORD [-28+EBP]
   274 000000AC 8B 45 E8                        	MOV	EAX,DWORD [-24+EBP]
   275 000000AF 8A 0C 51                        	MOV	CL,BYTE [ECX+EDX*2]
   276 000000B2 88 4D DF                        	MOV	BYTE [-33+EBP],CL
   277 000000B5 8B 4D E4                        	MOV	ECX,DWORD [-28+EBP]
   278 000000B8 8A 04 50                        	MOV	AL,BYTE [EAX+EDX*2]
   279 000000BB 08 45 DF                        	OR	BYTE [-33+EBP],AL
   280 000000BE 8B 45 E8                        	MOV	EAX,DWORD [-24+EBP]
   281 000000C1 8A 4C 51 01                     	MOV	CL,BYTE [1+ECX+EDX*2]
   282 000000C5 88 4D DE                        	MOV	BYTE [-34+EBP],CL
   283 000000C8 8A 44 50 01                     	MOV	AL,BYTE [1+EAX+EDX*2]
   284 000000CC 08 45 DE                        	OR	BYTE [-34+EBP],AL
   285 000000CF 85 FF                           	TEST	EDI,EDI
   286 000000D1 74 13                           	JE	L6
   287 000000D3 8B 4D E0                        	MOV	ECX,DWORD [-32+EBP]
   288 000000D6 8B 45 E0                        	MOV	EAX,DWORD [-32+EBP]
   289 000000D9 8A 0C 51                        	MOV	CL,BYTE [ECX+EDX*2]
   290 000000DC 08 4D DF                        	OR	BYTE [-33+EBP],CL
   291 000000DF 8A 44 50 01                     	MOV	AL,BYTE [1+EAX+EDX*2]
   292 000000E3 08 45 DE                        	OR	BYTE [-34+EBP],AL
   293 000000E6                                 L6:
   294 000000E6 8B 45 14                        	MOV	EAX,DWORD [20+EBP]
   295 000000E9 8B 4D 10                        	MOV	ECX,DWORD [16+EBP]
   296 000000EC 01 D0                           	ADD	EAX,EDX
   297 000000EE 31 DB                           	XOR	EBX,EBX
   298 000000F0 0F AF 45 0C                     	IMUL	EAX,DWORD [12+EBP]
   299 000000F4 03 45 08                        	ADD	EAX,DWORD [8+EBP]
   300 000000F7 8D 34 01                        	LEA	ESI,DWORD [ECX+EAX*1]
   301 000000FA                                 L13:
   302 000000FA C7 45 D8 00000080               	MOV	DWORD [-40+EBP],128
   303 00000101 88 D9                           	MOV	CL,BL
   304 00000103 D3 7D D8                        	SAR	DWORD [-40+EBP],CL
   305 00000106 0F B6 45 DF                     	MOVZX	EAX,BYTE [-33+EBP]
   306 0000010A 85 45 D8                        	TEST	DWORD [-40+EBP],EAX
   307 0000010D 74 06                           	JE	L11
   308 0000010F 8A 45 F3                        	MOV	AL,BYTE [-13+EBP]
   309 00000112 88 04 33                        	MOV	BYTE [EBX+ESI*1],AL
   310 00000115                                 L11:
   311 00000115 0F B6 45 DE                     	MOVZX	EAX,BYTE [-34+EBP]
   312 00000119 85 45 D8                        	TEST	DWORD [-40+EBP],EAX
   313 0000011C 74 07                           	JE	L9
   314 0000011E 8A 4D F3                        	MOV	CL,BYTE [-13+EBP]
   315 00000121 88 4C 33 08                     	MOV	BYTE [8+EBX+ESI*1],CL
   316 00000125                                 L9:
   317 00000125 43                              	INC	EBX
   318 00000126 83 FB 07                        	CMP	EBX,7
   319 00000129 7E CF                           	JLE	L13
   320 0000012B 42                              	INC	EDX
   321 0000012C 83 FA 0F                        	CMP	EDX,15
   322 0000012F 0F 8E FFFFFF74                  	JLE	L14
   323 00000135 83 C4 1C                        	ADD	ESP,28
   324 00000138 5B                              	POP	EBX
   325 00000139 5E                              	POP	ESI
   326 0000013A 5F                              	POP	EDI
   327 0000013B 5D                              	POP	EBP
   328 0000013C C3                              	RET
   329                                          [SECTION .data]
   330 000000CA                                 _U2J_cho:
   331 000000CA 02                              	DB	2
   332 000000CB 03                              	DB	3
   333 000000CC 04                              	DB	4
   334 000000CD 05                              	DB	5
   335 000000CE 06                              	DB	6
   336 000000CF 07                              	DB	7
   337 000000D0 08                              	DB	8
   338 000000D1 09                              	DB	9
   339 000000D2 0A                              	DB	10
   340 000000D3 0B                              	DB	11
   341 000000D4 0C                              	DB	12
   342 000000D5 0D                              	DB	13
   343 000000D6 0E                              	DB	14
   344 000000D7 0F                              	DB	15
   345 000000D8 10                              	DB	16
   346 000000D9 11                              	DB	17
   347 000000DA 12                              	DB	18
   348 000000DB 13                              	DB	19
   349 000000DC 14                              	DB	20
   350 000000DD                                 _U2J_jung:
   351 000000DD 03                              	DB	3
   352 000000DE 04                              	DB	4
   353 000000DF 05                              	DB	5
   354 000000E0 06                              	DB	6
   355 000000E1 07                              	DB	7
   356 000000E2 0A                              	DB	10
   357 000000E3 0B                              	DB	11
   358 000000E4 0C                              	DB	12
   359 000000E5 0D                              	DB	13
   360 000000E6 0E                              	DB	14
   361 000000E7 0F                              	DB	15
   362 000000E8 12                              	DB	18
   363 000000E9 13                              	DB	19
   364 000000EA 14                              	DB	20
   365 000000EB 15                              	DB	21
   366 000000EC 16                              	DB	22
   367 000000ED 17                              	DB	23
   368 000000EE 1A                              	DB	26
   369 000000EF 1B                              	DB	27
   370 000000F0 1C                              	DB	28
   371 000000F1 1D                              	DB	29
   372 000000F2                                 _U2J_jong:
   373 000000F2 00                              	DB	0
   374 000000F3 02                              	DB	2
   375 000000F4 03                              	DB	3
   376 000000F5 04                              	DB	4
   377 000000F6 05                              	DB	5
   378 000000F7 06                              	DB	6
   379 000000F8 07                              	DB	7
   380 000000F9 08                              	DB	8
   381 000000FA 09                              	DB	9
   382 000000FB 0A                              	DB	10
   383 000000FC 0B                              	DB	11
   384 000000FD 0C                              	DB	12
   385 000000FE 0D                              	DB	13
   386 000000FF 0E                              	DB	14
   387 00000100 0F                              	DB	15
   388 00000101 10                              	DB	16
   389 00000102 11                              	DB	17
   390 00000103 13                              	DB	19
   391 00000104 14                              	DB	20
   392 00000105 15                              	DB	21
   393 00000106 16                              	DB	22
   394 00000107 17                              	DB	23
   395 00000108 18                              	DB	24
   396 00000109 19                              	DB	25
   397 0000010A 1A                              	DB	26
   398 0000010B 1B                              	DB	27
   399 0000010C 1C                              	DB	28
   400 0000010D 1D                              	DB	29
   401 0000010E                                 _KeyToChoIdx:
   402 0000010E FF                              	DB	-1
   403 0000010F FF                              	DB	-1
   404 00000110 FF                              	DB	-1
   405 00000111 FF                              	DB	-1
   406 00000112 FF                              	DB	-1
   407 00000113 FF                              	DB	-1
   408 00000114 FF                              	DB	-1
   409 00000115 FF                              	DB	-1
   410 00000116 FF                              	DB	-1
   411 00000117 FF                              	DB	-1
   412 00000118 FF                              	DB	-1
   413 00000119 FF                              	DB	-1
   414 0000011A FF                              	DB	-1
   415 0000011B FF                              	DB	-1
   416 0000011C FF                              	DB	-1
   417 0000011D FF                              	DB	-1
   418 0000011E FF                              	DB	-1
   419 0000011F FF                              	DB	-1
   420 00000120 FF                              	DB	-1
   421 00000121 FF                              	DB	-1
   422 00000122 FF                              	DB	-1
   423 00000123 FF                              	DB	-1
   424 00000124 FF                              	DB	-1
   425 00000125 FF                              	DB	-1
   426 00000126 FF                              	DB	-1
   427 00000127 FF                              	DB	-1
   428 00000128 FF                              	DB	-1
   429 00000129 FF                              	DB	-1
   430 0000012A FF                              	DB	-1
   431 0000012B FF                              	DB	-1
   432 0000012C FF                              	DB	-1
   433 0000012D FF                              	DB	-1
   434 0000012E FF                              	DB	-1
   435 0000012F FF                              	DB	-1
   436 00000130 FF                              	DB	-1
   437 00000131 FF                              	DB	-1
   438 00000132 FF                              	DB	-1
   439 00000133 FF                              	DB	-1
   440 00000134 FF                              	DB	-1
   441 00000135 FF                              	DB	-1
   442 00000136 FF                              	DB	-1
   443 00000137 FF                              	DB	-1
   444 00000138 FF                              	DB	-1
   445 00000139 FF                              	DB	-1
   446 0000013A FF                              	DB	-1
   447 0000013B FF                              	DB	-1
   448 0000013C FF                              	DB	-1
   449 0000013D FF                              	DB	-1
   450 0000013E FF                              	DB	-1
   451 0000013F FF                              	DB	-1
   452 00000140 FF                              	DB	-1
   453 00000141 FF                              	DB	-1
   454 00000142 FF                              	DB	-1
   455 00000143 FF                              	DB	-1
   456 00000144 FF                              	DB	-1
   457 00000145 FF                              	DB	-1
   458 00000146 FF                              	DB	-1
   459 00000147 FF                              	DB	-1
   460 00000148 FF                              	DB	-1
   461 00000149 FF                              	DB	-1
   462 0000014A FF                              	DB	-1
   463 0000014B FF                              	DB	-1
   464 0000014C FF                              	DB	-1
   465 0000014D FF                              	DB	-1
   466 0000014E FF                              	DB	-1
   467 0000014F FF                              	DB	-1
   468 00000150 FF                              	DB	-1
   469 00000151 FF                              	DB	-1
   470 00000152 FF                              	DB	-1
   471 00000153 04                              	DB	4
   472 00000154 FF                              	DB	-1
   473 00000155 FF                              	DB	-1
   474 00000156 FF                              	DB	-1
   475 00000157 FF                              	DB	-1
   476 00000158 FF                              	DB	-1
   477 00000159 FF                              	DB	-1
   478 0000015A FF                              	DB	-1
   479 0000015B FF                              	DB	-1
   480 0000015C FF                              	DB	-1
   481 0000015D FF                              	DB	-1
   482 0000015E FF                              	DB	-1
   483 0000015F 08                              	DB	8
   484 00000160 01                              	DB	1
   485 00000161 FF                              	DB	-1
   486 00000162 0A                              	DB	10
   487 00000163 FF                              	DB	-1
   488 00000164 FF                              	DB	-1
   489 00000165 0D                              	DB	13
   490 00000166 FF                              	DB	-1
   491 00000167 FF                              	DB	-1
   492 00000168 FF                              	DB	-1
   493 00000169 FF                              	DB	-1
   494 0000016A FF                              	DB	-1
   495 0000016B FF                              	DB	-1
   496 0000016C FF                              	DB	-1
   497 0000016D FF                              	DB	-1
   498 0000016E FF                              	DB	-1
   499 0000016F 06                              	DB	6
   500 00000170 FF                              	DB	-1
   501 00000171 0E                              	DB	14
   502 00000172 0B                              	DB	11
   503 00000173 03                              	DB	3
   504 00000174 05                              	DB	5
   505 00000175 12                              	DB	18
   506 00000176 FF                              	DB	-1
   507 00000177 FF                              	DB	-1
   508 00000178 FF                              	DB	-1
   509 00000179 FF                              	DB	-1
   510 0000017A FF                              	DB	-1
   511 0000017B FF                              	DB	-1
   512 0000017C FF                              	DB	-1
   513 0000017D FF                              	DB	-1
   514 0000017E FF                              	DB	-1
   515 0000017F 07                              	DB	7
   516 00000180 00                              	DB	0
   517 00000181 02                              	DB	2
   518 00000182 09                              	DB	9
   519 00000183 FF                              	DB	-1
   520 00000184 11                              	DB	17
   521 00000185 0C                              	DB	12
   522 00000186 10                              	DB	16
   523 00000187 FF                              	DB	-1
   524 00000188 0F                              	DB	15
   525 00000189 FF                              	DB	-1
   526 0000018A FF                              	DB	-1
   527 0000018B FF                              	DB	-1
   528 0000018C FF                              	DB	-1
   529 0000018D FF                              	DB	-1
   530 0000018E                                 _KeyToJungIdx:
   531 0000018E FF                              	DB	-1
   532 0000018F FF                              	DB	-1
   533 00000190 FF                              	DB	-1
   534 00000191 FF                              	DB	-1
   535 00000192 FF                              	DB	-1
   536 00000193 FF                              	DB	-1
   537 00000194 FF                              	DB	-1
   538 00000195 FF                              	DB	-1
   539 00000196 FF                              	DB	-1
   540 00000197 FF                              	DB	-1
   541 00000198 FF                              	DB	-1
   542 00000199 FF                              	DB	-1
   543 0000019A FF                              	DB	-1
   544 0000019B FF                              	DB	-1
   545 0000019C FF                              	DB	-1
   546 0000019D FF                              	DB	-1
   547 0000019E FF                              	DB	-1
   548 0000019F FF                              	DB	-1
   549 000001A0 FF                              	DB	-1
   550 000001A1 FF                              	DB	-1
   551 000001A2 FF                              	DB	-1
   552 000001A3 FF                              	DB	-1
   553 000001A4 FF                              	DB	-1
   554 000001A5 FF                              	DB	-1
   555 000001A6 FF                              	DB	-1
   556 000001A7 FF                              	DB	-1
   557 000001A8 FF                              	DB	-1
   558 000001A9 FF                              	DB	-1
   559 000001AA FF                              	DB	-1
   560 000001AB FF                              	DB	-1
   561 000001AC FF                              	DB	-1
   562 000001AD FF                              	DB	-1
   563 000001AE FF                              	DB	-1
   564 000001AF FF                              	DB	-1
   565 000001B0 FF                              	DB	-1
   566 000001B1 FF                              	DB	-1
   567 000001B2 FF                              	DB	-1
   568 000001B3 FF                              	DB	-1
   569 000001B4 FF                              	DB	-1
   570 000001B5 FF                              	DB	-1
   571 000001B6 FF                              	DB	-1
   572 000001B7 FF                              	DB	-1
   573 000001B8 FF                              	DB	-1
   574 000001B9 FF                              	DB	-1
   575 000001BA FF                              	DB	-1
   576 000001BB FF                              	DB	-1
   577 000001BC FF                              	DB	-1
   578 000001BD FF                              	DB	-1
   579 000001BE FF                              	DB	-1
   580 000001BF FF                              	DB	-1
   581 000001C0 FF                              	DB	-1
   582 000001C1 FF                              	DB	-1
   583 000001C2 FF                              	DB	-1
   584 000001C3 FF                              	DB	-1
   585 000001C4 FF                              	DB	-1
   586 000001C5 FF                              	DB	-1
   587 000001C6 FF                              	DB	-1
   588 000001C7 FF                              	DB	-1
   589 000001C8 FF                              	DB	-1
   590 000001C9 FF                              	DB	-1
   591 000001CA FF                              	DB	-1
   592 000001CB FF                              	DB	-1
   593 000001CC FF                              	DB	-1
   594 000001CD FF                              	DB	-1
   595 000001CE FF                              	DB	-1
   596 000001CF FF                              	DB	-1
   597 000001D0 FF                              	DB	-1
   598 000001D1 FF                              	DB	-1
   599 000001D2 FF                              	DB	-1
   600 000001D3 FF                              	DB	-1
   601 000001D4 FF                              	DB	-1
   602 000001D5 FF                              	DB	-1
   603 000001D6 FF                              	DB	-1
   604 000001D7 FF                              	DB	-1
   605 000001D8 FF                              	DB	-1
   606 000001D9 FF                              	DB	-1
   607 000001DA FF                              	DB	-1
   608 000001DB FF                              	DB	-1
   609 000001DC FF                              	DB	-1
   610 000001DD 03                              	DB	3
   611 000001DE 07                              	DB	7
   612 000001DF FF                              	DB	-1
   613 000001E0 FF                              	DB	-1
   614 000001E1 FF                              	DB	-1
   615 000001E2 FF                              	DB	-1
   616 000001E3 FF                              	DB	-1
   617 000001E4 FF                              	DB	-1
   618 000001E5 FF                              	DB	-1
   619 000001E6 FF                              	DB	-1
   620 000001E7 FF                              	DB	-1
   621 000001E8 FF                              	DB	-1
   622 000001E9 FF                              	DB	-1
   623 000001EA FF                              	DB	-1
   624 000001EB FF                              	DB	-1
   625 000001EC FF                              	DB	-1
   626 000001ED FF                              	DB	-1
   627 000001EE FF                              	DB	-1
   628 000001EF FF                              	DB	-1
   629 000001F0 11                              	DB	17
   630 000001F1 FF                              	DB	-1
   631 000001F2 FF                              	DB	-1
   632 000001F3 FF                              	DB	-1
   633 000001F4 FF                              	DB	-1
   634 000001F5 FF                              	DB	-1
   635 000001F6 08                              	DB	8
   636 000001F7 02                              	DB	2
   637 000001F8 04                              	DB	4
   638 000001F9 00                              	DB	0
   639 000001FA 14                              	DB	20
   640 000001FB 12                              	DB	18
   641 000001FC 0D                              	DB	13
   642 000001FD 01                              	DB	1
   643 000001FE 05                              	DB	5
   644 000001FF FF                              	DB	-1
   645 00000200 FF                              	DB	-1
   646 00000201 FF                              	DB	-1
   647 00000202 FF                              	DB	-1
   648 00000203 06                              	DB	6
   649 00000204 FF                              	DB	-1
   650 00000205 FF                              	DB	-1
   651 00000206 FF                              	DB	-1
   652 00000207 0C                              	DB	12
   653 00000208 FF                              	DB	-1
   654 00000209 FF                              	DB	-1
   655 0000020A FF                              	DB	-1
   656 0000020B FF                              	DB	-1
   657 0000020C FF                              	DB	-1
   658 0000020D FF                              	DB	-1
   659 0000020E                                 _KeyToJongIdx:
   660 0000020E FF                              	DB	-1
   661 0000020F FF                              	DB	-1
   662 00000210 FF                              	DB	-1
   663 00000211 FF                              	DB	-1
   664 00000212 FF                              	DB	-1
   665 00000213 FF                              	DB	-1
   666 00000214 FF                              	DB	-1
   667 00000215 FF                              	DB	-1
   668 00000216 FF                              	DB	-1
   669 00000217 FF                              	DB	-1
   670 00000218 FF                              	DB	-1
   671 00000219 FF                              	DB	-1
   672 0000021A FF                              	DB	-1
   673 0000021B FF                              	DB	-1
   674 0000021C FF                              	DB	-1
   675 0000021D FF                              	DB	-1
   676 0000021E FF                              	DB	-1
   677 0000021F FF                              	DB	-1
   678 00000220 FF                              	DB	-1
   679 00000221 FF                              	DB	-1
   680 00000222 FF                              	DB	-1
   681 00000223 FF                              	DB	-1
   682 00000224 FF                              	DB	-1
   683 00000225 FF                              	DB	-1
   684 00000226 FF                              	DB	-1
   685 00000227 FF                              	DB	-1
   686 00000228 FF                              	DB	-1
   687 00000229 FF                              	DB	-1
   688 0000022A FF                              	DB	-1
   689 0000022B FF                              	DB	-1
   690 0000022C FF                              	DB	-1
   691 0000022D FF                              	DB	-1
   692 0000022E FF                              	DB	-1
   693 0000022F FF                              	DB	-1
   694 00000230 FF                              	DB	-1
   695 00000231 FF                              	DB	-1
   696 00000232 FF                              	DB	-1
   697 00000233 FF                              	DB	-1
   698 00000234 FF                              	DB	-1
   699 00000235 FF                              	DB	-1
   700 00000236 FF                              	DB	-1
   701 00000237 FF                              	DB	-1
   702 00000238 FF                              	DB	-1
   703 00000239 FF                              	DB	-1
   704 0000023A FF                              	DB	-1
   705 0000023B FF                              	DB	-1
   706 0000023C FF                              	DB	-1
   707 0000023D FF                              	DB	-1
   708 0000023E FF                              	DB	-1
   709 0000023F FF                              	DB	-1
   710 00000240 FF                              	DB	-1
   711 00000241 FF                              	DB	-1
   712 00000242 FF                              	DB	-1
   713 00000243 FF                              	DB	-1
   714 00000244 FF                              	DB	-1
   715 00000245 FF                              	DB	-1
   716 00000246 FF                              	DB	-1
   717 00000247 FF                              	DB	-1
   718 00000248 FF                              	DB	-1
   719 00000249 FF                              	DB	-1
   720 0000024A FF                              	DB	-1
   721 0000024B FF                              	DB	-1
   722 0000024C FF                              	DB	-1
   723 0000024D FF                              	DB	-1
   724 0000024E FF                              	DB	-1
   725 0000024F FF                              	DB	-1
   726 00000250 FF                              	DB	-1
   727 00000251 FF                              	DB	-1
   728 00000252 FF                              	DB	-1
   729 00000253 FF                              	DB	-1
   730 00000254 FF                              	DB	-1
   731 00000255 FF                              	DB	-1
   732 00000256 FF                              	DB	-1
   733 00000257 FF                              	DB	-1
   734 00000258 FF                              	DB	-1
   735 00000259 FF                              	DB	-1
   736 0000025A FF                              	DB	-1
   737 0000025B FF                              	DB	-1
   738 0000025C FF                              	DB	-1
   739 0000025D FF                              	DB	-1
   740 0000025E FF                              	DB	-1
   741 0000025F FF                              	DB	-1
   742 00000260 02                              	DB	2
   743 00000261 FF                              	DB	-1
   744 00000262 14                              	DB	20
   745 00000263 FF                              	DB	-1
   746 00000264 FF                              	DB	-1
   747 00000265 FF                              	DB	-1
   748 00000266 FF                              	DB	-1
   749 00000267 FF                              	DB	-1
   750 00000268 FF                              	DB	-1
   751 00000269 FF                              	DB	-1
   752 0000026A FF                              	DB	-1
   753 0000026B FF                              	DB	-1
   754 0000026C FF                              	DB	-1
   755 0000026D FF                              	DB	-1
   756 0000026E FF                              	DB	-1
   757 0000026F 10                              	DB	16
   758 00000270 FF                              	DB	-1
   759 00000271 17                              	DB	23
   760 00000272 15                              	DB	21
   761 00000273 07                              	DB	7
   762 00000274 08                              	DB	8
   763 00000275 1B                              	DB	27
   764 00000276 FF                              	DB	-1
   765 00000277 FF                              	DB	-1
   766 00000278 FF                              	DB	-1
   767 00000279 FF                              	DB	-1
   768 0000027A FF                              	DB	-1
   769 0000027B FF                              	DB	-1
   770 0000027C FF                              	DB	-1
   771 0000027D FF                              	DB	-1
   772 0000027E FF                              	DB	-1
   773 0000027F 11                              	DB	17
   774 00000280 01                              	DB	1
   775 00000281 04                              	DB	4
   776 00000282 13                              	DB	19
   777 00000283 FF                              	DB	-1
   778 00000284 1A                              	DB	26
   779 00000285 16                              	DB	22
   780 00000286 19                              	DB	25
   781 00000287 FF                              	DB	-1
   782 00000288 18                              	DB	24
   783 00000289 FF                              	DB	-1
   784 0000028A FF                              	DB	-1
   785 0000028B FF                              	DB	-1
   786 0000028C FF                              	DB	-1
   787 0000028D FF                              	DB	-1
   788                                          [SECTION .text]
   789 0000013D                                 	GLOBAL	_key2cho
   790 0000013D                                 _key2cho:
   791 0000013D 55                              	PUSH	EBP
   792 0000013E 83 CA FF                        	OR	EDX,-1
   793 00000141 89 E5                           	MOV	EBP,ESP
   794 00000143 8A 45 08                        	MOV	AL,BYTE [8+EBP]
   795 00000146 84 C0                           	TEST	AL,AL
   796 00000148 78 0A                           	JS	L19
   797 0000014A 0F B6 C0                        	MOVZX	EAX,AL
   798 0000014D 0F BE 90 [0000010E]             	MOVSX	EDX,BYTE [_KeyToChoIdx+EAX]
   799 00000154                                 L19:
   800 00000154 89 D0                           	MOV	EAX,EDX
   801 00000156 5D                              	POP	EBP
   802 00000157 C3                              	RET
   803 00000158                                 	GLOBAL	_key2jung
   804 00000158                                 _key2jung:
   805 00000158 55                              	PUSH	EBP
   806 00000159 83 CA FF                        	OR	EDX,-1
   807 0000015C 89 E5                           	MOV	EBP,ESP
   808 0000015E 8A 45 08                        	MOV	AL,BYTE [8+EBP]
   809 00000161 84 C0                           	TEST	AL,AL
   810 00000163 78 0A                           	JS	L21
   811 00000165 0F B6 C0                        	MOVZX	EAX,AL
   812 00000168 0F BE 90 [0000018E]             	MOVSX	EDX,BYTE [_KeyToJungIdx+EAX]
   813 0000016F                                 L21:
   814 0000016F 89 D0                           	MOV	EAX,EDX
   815 00000171 5D                              	POP	EBP
   816 00000172 C3                              	RET
   817 00000173                                 	GLOBAL	_key2jong
   818 00000173                                 _key2jong:
   819 00000173 55                              	PUSH	EBP
   820 00000174 83 CA FF                        	OR	EDX,-1
   821 00000177 89 E5                           	MOV	EBP,ESP
   822 00000179 8A 45 08                        	MOV	AL,BYTE [8+EBP]
   823 0000017C 84 C0                           	TEST	AL,AL
   824 0000017E 78 0A                           	JS	L23
   825 00000180 0F B6 C0                        	MOVZX	EAX,AL
   826 00000183 0F BE 90 [0000020E]             	MOVSX	EDX,BYTE [_KeyToJongIdx+EAX]
   827 0000018A                                 L23:
   828 0000018A 89 D0                           	MOV	EAX,EDX
   829 0000018C 5D                              	POP	EBP
   830 0000018D C3                              	RET
   831 0000018E                                 	GLOBAL	_utf8_to_johab
   832 0000018E                                 _utf8_to_johab:
   833 0000018E 55                              	PUSH	EBP
   834 0000018F 89 E5                           	MOV	EBP,ESP
   835 00000191 56                              	PUSH	ESI
   836 00000192 53                              	PUSH	EBX
   837 00000193 51                              	PUSH	ECX
   838 00000194 8B 4D 08                        	MOV	ECX,DWORD [8+EBP]
   839 00000197 8A 01                           	MOV	AL,BYTE [ECX]
   840 00000199 83 E0 0F                        	AND	EAX,15
   841 0000019C 0F B6 D8                        	MOVZX	EBX,AL
   842 0000019F C1 E3 0C                        	SAL	EBX,12
   843 000001A2 8A 41 01                        	MOV	AL,BYTE [1+ECX]
   844 000001A5 83 E0 3F                        	AND	EAX,63
   845 000001A8 0F B6 C0                        	MOVZX	EAX,AL
   846 000001AB C1 E0 06                        	SAL	EAX,6
   847 000001AE 09 C3                           	OR	EBX,EAX
   848 000001B0 8A 41 02                        	MOV	AL,BYTE [2+ECX]
   849 000001B3 83 E0 3F                        	AND	EAX,63
   850 000001B6 0F B6 C0                        	MOVZX	EAX,AL
   851 000001B9 09 C3                           	OR	EBX,EAX
   852 000001BB 31 C0                           	XOR	EAX,EAX
   853 000001BD 81 EB 0000AC00                  	SUB	EBX,44032
   854 000001C3 81 FB 00002BA3                  	CMP	EBX,11171
   855 000001C9 77 56                           	JA	L25
   856 000001CB B9 0000024C                     	MOV	ECX,588
   857 000001D0 89 D8                           	MOV	EAX,EBX
   858 000001D2 31 D2                           	XOR	EDX,EDX
   859 000001D4 F7 F1                           	DIV	ECX
   860 000001D6 B9 0000001C                     	MOV	ECX,28
   861 000001DB 89 C3                           	MOV	EBX,EAX
   862 000001DD 89 55 F4                        	MOV	DWORD [-12+EBP],EDX
   863 000001E0 89 D0                           	MOV	EAX,EDX
   864 000001E2 31 D2                           	XOR	EDX,EDX
   865 000001E4 F7 F1                           	DIV	ECX
   866 000001E6 89 C6                           	MOV	ESI,EAX
   867 000001E8 8A 83 [000000CA]                	MOV	AL,BYTE [_U2J_cho+EBX]
   868 000001EE 83 E0 1F                        	AND	EAX,31
   869 000001F1 0F B6 C0                        	MOVZX	EAX,AL
   870 000001F4 C1 E0 0A                        	SAL	EAX,10
   871 000001F7 89 C3                           	MOV	EBX,EAX
   872 000001F9 8A 86 [000000DD]                	MOV	AL,BYTE [_U2J_jung+ESI]
   873 000001FF 66 81 CB 8000                   	OR	BX,-32768
   874 00000204 83 E0 1F                        	AND	EAX,31
   875 00000207 0F B6 C0                        	MOVZX	EAX,AL
   876 0000020A C1 E0 05                        	SAL	EAX,5
   877 0000020D 09 C3                           	OR	EBX,EAX
   878 0000020F 8A 82 [000000F2]                	MOV	AL,BYTE [_U2J_jong+EDX]
   879 00000215 83 E0 1F                        	AND	EAX,31
   880 00000218 66 0F B6 C0                     	MOVZX	AX,AL
   881 0000021C 09 C3                           	OR	EBX,EAX
   882 0000021E 0F B7 C3                        	MOVZX	EAX,BX
   883 00000221                                 L25:
   884 00000221 5A                              	POP	EDX
   885 00000222 5B                              	POP	EBX
   886 00000223 5E                              	POP	ESI
   887 00000224 5D                              	POP	EBP
   888 00000225 C3                              	RET
   889 00000226                                 	GLOBAL	_johab_to_utf8
   890 00000226                                 _johab_to_utf8:
   891 00000226 55                              	PUSH	EBP
   892 00000227 89 E5                           	MOV	EBP,ESP
   893 00000229 53                              	PUSH	EBX
   894 0000022A 8B 4D 10                        	MOV	ECX,DWORD [16+EBP]
   895 0000022D 8B 55 14                        	MOV	EDX,DWORD [20+EBP]
   896 00000230 8B 5D 08                        	MOV	EBX,DWORD [8+EBP]
   897 00000233 8B 45 18                        	MOV	EAX,DWORD [24+EBP]
   898 00000236 83 F9 12                        	CMP	ECX,18
   899 00000239 77 09                           	JA	L29
   900 0000023B 85 D2                           	TEST	EDX,EDX
   901 0000023D 78 05                           	JS	L29
   902 0000023F 83 FA 14                        	CMP	EDX,20
   903 00000242 7E 05                           	JLE	L28
   904 00000244                                 L29:
   905 00000244 31 C0                           	XOR	EAX,EAX
   906 00000246                                 L27:
   907 00000246 5B                              	POP	EBX
   908 00000247 5D                              	POP	EBP
   909 00000248 C3                              	RET
   910 00000249                                 L28:
   911 00000249 83 F8 FF                        	CMP	EAX,-1
   912 0000024C 74 44                           	JE	L32
   913 0000024E                                 L31:
   914 0000024E 69 C9 0000024C                  	IMUL	ECX,ECX,588
   915 00000254 6B D2 1C                        	IMUL	EDX,EDX,28
   916 00000257 C6 43 03 00                     	MOV	BYTE [3+EBX],0
   917 0000025B 8D 14 0A                        	LEA	EDX,DWORD [EDX+ECX*1]
   918 0000025E 8D 94 10 0000AC00               	LEA	EDX,DWORD [44032+EAX+EDX*1]
   919 00000265 89 D0                           	MOV	EAX,EDX
   920 00000267 C1 E8 0C                        	SHR	EAX,12
   921 0000026A 83 E0 0F                        	AND	EAX,15
   922 0000026D 83 C8 E0                        	OR	EAX,-32
   923 00000270 88 03                           	MOV	BYTE [EBX],AL
   924 00000272 89 D0                           	MOV	EAX,EDX
   925 00000274 C1 E8 06                        	SHR	EAX,6
   926 00000277 83 E0 3F                        	AND	EAX,63
   927 0000027A 83 C8 80                        	OR	EAX,-128
   928 0000027D 88 43 01                        	MOV	BYTE [1+EBX],AL
   929 00000280 88 D0                           	MOV	AL,DL
   930 00000282 83 E0 3F                        	AND	EAX,63
   931 00000285 83 C8 80                        	OR	EAX,-128
   932 00000288 88 43 02                        	MOV	BYTE [2+EBX],AL
   933 0000028B B8 00000003                     	MOV	EAX,3
   934 00000290 EB B4                           	JMP	L27
   935 00000292                                 L32:
   936 00000292 31 C0                           	XOR	EAX,EAX
   937 00000294 EB B8                           	JMP	L31
   938 00000296                                 	GLOBAL	_putstr_utf8
   939 00000296                                 _putstr_utf8:
   940 00000296 55                              	PUSH	EBP
   941 00000297 89 E5                           	MOV	EBP,ESP
   942 00000299 57                              	PUSH	EDI
   943 0000029A 56                              	PUSH	ESI
   944 0000029B 53                              	PUSH	EBX
   945 0000029C 51                              	PUSH	ECX
   946 0000029D 8B 5D 1C                        	MOV	EBX,DWORD [28+EBP]
   947 000002A0 8A 45 18                        	MOV	AL,BYTE [24+EBP]
   948 000002A3 88 45 F1                        	MOV	BYTE [-15+EBP],AL
   949 000002A6 8B 3D 00000FE8                  	MOV	EDI,DWORD [4072]
   950 000002AC 66 C7 45 F2 0000                	MOV	WORD [-14+EBP],0
   951 000002B2 8B 75 10                        	MOV	ESI,DWORD [16+EBP]
   952 000002B5 80 3B 00                        	CMP	BYTE [EBX],0
   953 000002B8 74 49                           	JE	L33
   954 000002BA                                 L42:
   955 000002BA 8A 03                           	MOV	AL,BYTE [EBX]
   956 000002BC 84 C0                           	TEST	AL,AL
   957 000002BE 79 4B                           	JNS	L44
   958 000002C0 80 7B 01 00                     	CMP	BYTE [1+EBX],0
   959 000002C4 74 3D                           	JE	L33
   960 000002C6 80 7B 02 00                     	CMP	BYTE [2+EBX],0
   961 000002CA 74 37                           	JE	L33
   962 000002CC 53                              	PUSH	EBX
   963 000002CD E8 FFFFFEBC                     	CALL	_utf8_to_johab
   964 000002D2 5A                              	POP	EDX
   965 000002D3 66 85 C0                        	TEST	AX,AX
   966 000002D6 74 20                           	JE	L41
   967 000002D8 85 FF                           	TEST	EDI,EDI
   968 000002DA 74 1C                           	JE	L41
   969 000002DC 0F B7 C0                        	MOVZX	EAX,AX
   970 000002DF 50                              	PUSH	EAX
   971 000002E0 57                              	PUSH	EDI
   972 000002E1 0F BE 45 F1                     	MOVSX	EAX,BYTE [-15+EBP]
   973 000002E5 50                              	PUSH	EAX
   974 000002E6 FF 75 14                        	PUSH	DWORD [20+EBP]
   975 000002E9 56                              	PUSH	ESI
   976 000002EA FF 75 0C                        	PUSH	DWORD [12+EBP]
   977 000002ED FF 75 08                        	PUSH	DWORD [8+EBP]
   978 000002F0 E8 FFFFFD0B                     	CALL	_put_johab
   979 000002F5 83 C4 1C                        	ADD	ESP,28
   980 000002F8                                 L41:
   981 000002F8 83 C6 10                        	ADD	ESI,16
   982 000002FB 83 C3 03                        	ADD	EBX,3
   983 000002FE                                 L34:
   984 000002FE 80 3B 00                        	CMP	BYTE [EBX],0
   985 00000301 75 B7                           	JNE	L42
   986 00000303                                 L33:
   987 00000303 8D 65 F4                        	LEA	ESP,DWORD [-12+EBP]
   988 00000306 5B                              	POP	EBX
   989 00000307 5E                              	POP	ESI
   990 00000308 5F                              	POP	EDI
   991 00000309 5D                              	POP	EBP
   992 0000030A C3                              	RET
   993 0000030B                                 L44:
   994 0000030B 88 45 F2                        	MOV	BYTE [-14+EBP],AL
   995 0000030E 43                              	INC	EBX
   996 0000030F 8D 45 F2                        	LEA	EAX,DWORD [-14+EBP]
   997 00000312 50                              	PUSH	EAX
   998 00000313 0F BE 45 F1                     	MOVSX	EAX,BYTE [-15+EBP]
   999 00000317 50                              	PUSH	EAX
  1000 00000318 FF 75 14                        	PUSH	DWORD [20+EBP]
  1001 0000031B 56                              	PUSH	ESI
  1002 0000031C 83 C6 08                        	ADD	ESI,8
  1003 0000031F FF 75 0C                        	PUSH	DWORD [12+EBP]
  1004 00000322 FF 75 08                        	PUSH	DWORD [8+EBP]
  1005 00000325 E8 [00000000]                   	CALL	_putfonts
  1006 0000032A 83 C4 18                        	ADD	ESP,24
  1007 0000032D EB CF                           	JMP	L34
  1008                                          [SECTION .data]
  1009 0000028E                                 _jong2cho:
  1010 0000028E FFFFFFFF                        	DD	-1
  1011 00000292 00000000                        	DD	0
  1012 00000296 00000001                        	DD	1
  1013 0000029A FFFFFFFF                        	DD	-1
  1014 0000029E 00000002                        	DD	2
  1015 000002A2 FFFFFFFF                        	DD	-1
  1016 000002A6 FFFFFFFF                        	DD	-1
  1017 000002AA 00000003                        	DD	3
  1018 000002AE 00000005                        	DD	5
  1019 000002B2 FFFFFFFF                        	DD	-1
  1020 000002B6 FFFFFFFF                        	DD	-1
  1021 000002BA FFFFFFFF                        	DD	-1
  1022 000002BE FFFFFFFF                        	DD	-1
  1023 000002C2 FFFFFFFF                        	DD	-1
  1024 000002C6 FFFFFFFF                        	DD	-1
  1025 000002CA FFFFFFFF                        	DD	-1
  1026 000002CE 00000006                        	DD	6
  1027 000002D2 00000007                        	DD	7
  1028 000002D6 FFFFFFFF                        	DD	-1
  1029 000002DA 00000009                        	DD	9
  1030 000002DE 0000000A                        	DD	10
  1031 000002E2 0000000B                        	DD	11
  1032 000002E6 0000000C                        	DD	12
  1033 000002EA 0000000E                        	DD	14
  1034 000002EE 0000000F                        	DD	15
  1035 000002F2 00000010                        	DD	16
  1036 000002F6 00000011                        	DD	17
  1037 000002FA 00000012                        	DD	18
  1038                                          [SECTION .text]
  1039 0000032F                                 	GLOBAL	_get_composite_jung
  1040 0000032F                                 _get_composite_jung:
  1041 0000032F 55                              	PUSH	EBP
  1042 00000330 89 E5                           	MOV	EBP,ESP
  1043 00000332 8B 4D 08                        	MOV	ECX,DWORD [8+EBP]
  1044 00000335 8B 55 0C                        	MOV	EDX,DWORD [12+EBP]
  1045 00000338 83 F9 08                        	CMP	ECX,8
  1046 0000033B 74 3B                           	JE	L56
  1047 0000033D                                 L46:
  1048 0000033D 83 F9 0D                        	CMP	ECX,13
  1049 00000340 74 16                           	JE	L57
  1050 00000342                                 L50:
  1051 00000342 83 F9 12                        	CMP	ECX,18
  1052 00000345 74 05                           	JE	L58
  1053 00000347                                 L54:
  1054 00000347 83 C8 FF                        	OR	EAX,-1
  1055 0000034A                                 L45:
  1056 0000034A 5D                              	POP	EBP
  1057 0000034B C3                              	RET
  1058 0000034C                                 L58:
  1059 0000034C B8 00000013                     	MOV	EAX,19
  1060 00000351 83 FA 14                        	CMP	EDX,20
  1061 00000354 75 F1                           	JNE	L54
  1062 00000356 EB F2                           	JMP	L45
  1063 00000358                                 L57:
  1064 00000358 B8 0000000E                     	MOV	EAX,14
  1065 0000035D 83 FA 04                        	CMP	EDX,4
  1066 00000360 74 E8                           	JE	L45
  1067 00000362 B8 0000000F                     	MOV	EAX,15
  1068 00000367 83 FA 05                        	CMP	EDX,5
  1069 0000036A 74 DE                           	JE	L45
  1070 0000036C B8 00000010                     	MOV	EAX,16
  1071 00000371 83 FA 14                        	CMP	EDX,20
  1072 00000374 75 CC                           	JNE	L50
  1073 00000376 EB D2                           	JMP	L45
  1074 00000378                                 L56:
  1075 00000378 B8 00000009                     	MOV	EAX,9
  1076 0000037D 85 D2                           	TEST	EDX,EDX
  1077 0000037F 74 C9                           	JE	L45
  1078 00000381 B8 0000000A                     	MOV	EAX,10
  1079 00000386 83 FA 01                        	CMP	EDX,1
  1080 00000389 74 BF                           	JE	L45
  1081 0000038B B8 0000000B                     	MOV	EAX,11
  1082 00000390 83 FA 14                        	CMP	EDX,20
  1083 00000393 75 A8                           	JNE	L46
  1084 00000395 EB B3                           	JMP	L45
  1085 00000397                                 	GLOBAL	_split_composite_jung
  1086 00000397                                 _split_composite_jung:
  1087 00000397 55                              	PUSH	EBP
  1088 00000398 BA 00000008                     	MOV	EDX,8
  1089 0000039D 89 E5                           	MOV	EBP,ESP
  1090 0000039F 8B 4D 08                        	MOV	ECX,DWORD [8+EBP]
  1091 000003A2 8D 41 F7                        	LEA	EAX,DWORD [-9+ECX]
  1092 000003A5 83 F8 02                        	CMP	EAX,2
  1093 000003A8 76 1A                           	JBE	L59
  1094 000003AA 8D 41 F2                        	LEA	EAX,DWORD [-14+ECX]
  1095 000003AD BA 0000000D                     	MOV	EDX,13
  1096 000003B2 83 F8 02                        	CMP	EAX,2
  1097 000003B5 76 0D                           	JBE	L59
  1098 000003B7 BA 00000012                     	MOV	EDX,18
  1099 000003BC 83 F9 13                        	CMP	ECX,19
  1100 000003BF 74 03                           	JE	L59
  1101 000003C1 83 CA FF                        	OR	EDX,-1
  1102 000003C4                                 L59:
  1103 000003C4 89 D0                           	MOV	EAX,EDX
  1104 000003C6 5D                              	POP	EBP
  1105 000003C7 C3                              	RET
  1106 000003C8                                 	GLOBAL	_get_composite_jong
  1107 000003C8                                 _get_composite_jong:
  1108 000003C8 55                              	PUSH	EBP
  1109 000003C9 89 E5                           	MOV	EBP,ESP
  1110 000003CB 8B 4D 08                        	MOV	ECX,DWORD [8+EBP]
  1111 000003CE 8B 55 0C                        	MOV	EDX,DWORD [12+EBP]
  1112 000003D1 83 F9 01                        	CMP	ECX,1
  1113 000003D4 74 7D                           	JE	L79
  1114 000003D6                                 L64:
  1115 000003D6 83 F9 04                        	CMP	ECX,4
  1116 000003D9 74 62                           	JE	L80
  1117 000003DB                                 L66:
  1118 000003DB 83 F9 08                        	CMP	ECX,8
  1119 000003DE 74 16                           	JE	L81
  1120 000003E0                                 L69:
  1121 000003E0 83 F9 11                        	CMP	ECX,17
  1122 000003E3 74 05                           	JE	L82
  1123 000003E5                                 L77:
  1124 000003E5 83 C8 FF                        	OR	EAX,-1
  1125 000003E8                                 L63:
  1126 000003E8 5D                              	POP	EBP
  1127 000003E9 C3                              	RET
  1128 000003EA                                 L82:
  1129 000003EA B8 00000012                     	MOV	EAX,18
  1130 000003EF 83 FA 09                        	CMP	EDX,9
  1131 000003F2 75 F1                           	JNE	L77
  1132 000003F4 EB F2                           	JMP	L63
  1133 000003F6                                 L81:
  1134 000003F6 B8 00000009                     	MOV	EAX,9
  1135 000003FB 85 D2                           	TEST	EDX,EDX
  1136 000003FD 74 E9                           	JE	L63
  1137 000003FF B8 0000000A                     	MOV	EAX,10
  1138 00000404 83 FA 06                        	CMP	EDX,6
  1139 00000407 74 DF                           	JE	L63
  1140 00000409 B8 0000000B                     	MOV	EAX,11
  1141 0000040E 83 FA 07                        	CMP	EDX,7
  1142 00000411 74 D5                           	JE	L63
  1143 00000413 B8 0000000C                     	MOV	EAX,12
  1144 00000418 83 FA 09                        	CMP	EDX,9
  1145 0000041B 74 CB                           	JE	L63
  1146 0000041D B8 0000000D                     	MOV	EAX,13
  1147 00000422 83 FA 10                        	CMP	EDX,16
  1148 00000425 74 C1                           	JE	L63
  1149 00000427 B8 0000000E                     	MOV	EAX,14
  1150 0000042C 83 FA 11                        	CMP	EDX,17
  1151 0000042F 74 B7                           	JE	L63
  1152 00000431 B8 0000000F                     	MOV	EAX,15
  1153 00000436 83 FA 12                        	CMP	EDX,18
  1154 00000439 75 A5                           	JNE	L69
  1155 0000043B EB AB                           	JMP	L63
  1156 0000043D                                 L80:
  1157 0000043D B8 00000005                     	MOV	EAX,5
  1158 00000442 83 FA 0C                        	CMP	EDX,12
  1159 00000445 74 A1                           	JE	L63
  1160 00000447 B8 00000006                     	MOV	EAX,6
  1161 0000044C 83 FA 12                        	CMP	EDX,18
  1162 0000044F 75 8A                           	JNE	L66
  1163 00000451 EB 95                           	JMP	L63
  1164 00000453                                 L79:
  1165 00000453 B8 00000003                     	MOV	EAX,3
  1166 00000458 83 FA 09                        	CMP	EDX,9
  1167 0000045B 0F 85 FFFFFF75                  	JNE	L64
  1168 00000461 EB 85                           	JMP	L63
  1169 00000463                                 	GLOBAL	_get_first_jong
  1170 00000463                                 _get_first_jong:
  1171 00000463 55                              	PUSH	EBP
  1172 00000464 BA 00000001                     	MOV	EDX,1
  1173 00000469 89 E5                           	MOV	EBP,ESP
  1174 0000046B 8B 4D 08                        	MOV	ECX,DWORD [8+EBP]
  1175 0000046E 83 F9 03                        	CMP	ECX,3
  1176 00000471 74 27                           	JE	L83
  1177 00000473 8D 41 FB                        	LEA	EAX,DWORD [-5+ECX]
  1178 00000476 BA 00000004                     	MOV	EDX,4
  1179 0000047B 83 F8 01                        	CMP	EAX,1
  1180 0000047E 76 1A                           	JBE	L83
  1181 00000480 8D 41 F7                        	LEA	EAX,DWORD [-9+ECX]
  1182 00000483 BA 00000008                     	MOV	EDX,8
  1183 00000488 83 F8 06                        	CMP	EAX,6
  1184 0000048B 76 0D                           	JBE	L83
  1185 0000048D BA 00000011                     	MOV	EDX,17
  1186 00000492 83 F9 12                        	CMP	ECX,18
  1187 00000495 74 03                           	JE	L83
  1188 00000497 83 CA FF                        	OR	EDX,-1
  1189 0000049A                                 L83:
  1190 0000049A 89 D0                           	MOV	EAX,EDX
  1191 0000049C 5D                              	POP	EBP
  1192 0000049D C3                              	RET
  1193 0000049E                                 	GLOBAL	_get_second_jong
  1194 0000049E                                 _get_second_jong:
  1195 0000049E 55                              	PUSH	EBP
  1196 0000049F 89 E5                           	MOV	EBP,ESP
  1197 000004A1 8B 45 08                        	MOV	EAX,DWORD [8+EBP]
  1198 000004A4 83 E8 03                        	SUB	EAX,3
  1199 000004A7 83 F8 0F                        	CMP	EAX,15
  1200 000004AA 77 35                           	JA	L89
  1201 000004AC FF 24 85 [00000300]             	JMP	DWORD [L101+EAX*4]
  1202                                          [SECTION .data]
  1203 000002FE 00 00                           	ALIGNB	4
  1204 00000300                                 L101:
  1205 00000300 [000004E6]                      	DD	L100
  1206 00000304 [000004E1]                      	DD	L89
  1207 00000308 [000004B3]                      	DD	L91
  1208 0000030C [000004DA]                      	DD	L99
  1209 00000310 [000004E1]                      	DD	L89
  1210 00000314 [000004E1]                      	DD	L89
  1211 00000318 [000004BA]                      	DD	L93
  1212 0000031C [000004BE]                      	DD	L94
  1213 00000320 [000004C5]                      	DD	L95
  1214 00000324 [000004E6]                      	DD	L100
  1215 00000328 [000004CC]                      	DD	L97
  1216 0000032C [000004D3]                      	DD	L98
  1217 00000330 [000004DA]                      	DD	L99
  1218 00000334 [000004E1]                      	DD	L89
  1219 00000338 [000004E1]                      	DD	L89
  1220 0000033C [000004E6]                      	DD	L100
  1221                                          [SECTION .text]
  1222 000004B3                                 L91:
  1223 000004B3 B8 0000000C                     	MOV	EAX,12
  1224 000004B8                                 L88:
  1225 000004B8 5D                              	POP	EBP
  1226 000004B9 C3                              	RET
  1227 000004BA                                 L93:
  1228 000004BA 31 C0                           	XOR	EAX,EAX
  1229 000004BC EB FA                           	JMP	L88
  1230 000004BE                                 L94:
  1231 000004BE B8 00000006                     	MOV	EAX,6
  1232 000004C3 EB F3                           	JMP	L88
  1233 000004C5                                 L95:
  1234 000004C5 B8 00000007                     	MOV	EAX,7
  1235 000004CA EB EC                           	JMP	L88
  1236 000004CC                                 L97:
  1237 000004CC B8 00000010                     	MOV	EAX,16
  1238 000004D1 EB E5                           	JMP	L88
  1239 000004D3                                 L98:
  1240 000004D3 B8 00000011                     	MOV	EAX,17
  1241 000004D8 EB DE                           	JMP	L88
  1242 000004DA                                 L99:
  1243 000004DA B8 00000012                     	MOV	EAX,18
  1244 000004DF EB D7                           	JMP	L88
  1245 000004E1                                 L89:
  1246 000004E1 83 C8 FF                        	OR	EAX,-1
  1247 000004E4 EB D2                           	JMP	L88
  1248 000004E6                                 L100:
  1249 000004E6 B8 00000009                     	MOV	EAX,9
  1250 000004EB EB CB                           	JMP	L88
  1251 000004ED                                 	GLOBAL	_set_hangul
  1252 000004ED                                 _set_hangul:
  1253 000004ED 55                              	PUSH	EBP
  1254 000004EE 89 E5                           	MOV	EBP,ESP
  1255 000004F0 8B 55 08                        	MOV	EDX,DWORD [8+EBP]
  1256 000004F3 8B 45 0C                        	MOV	EAX,DWORD [12+EBP]
  1257 000004F6 8D 8A 000000C0                  	LEA	ECX,DWORD [192+EDX]
  1258 000004FC 89 82 000000C0                  	MOV	DWORD [192+EDX],EAX
  1259 00000502 8B 45 10                        	MOV	EAX,DWORD [16+EBP]
  1260 00000505 89 41 04                        	MOV	DWORD [4+ECX],EAX
  1261 00000508 8B 45 14                        	MOV	EAX,DWORD [20+EBP]
  1262 0000050B 89 41 08                        	MOV	DWORD [8+ECX],EAX
  1263 0000050E 8B 45 18                        	MOV	EAX,DWORD [24+EBP]
  1264 00000511 89 41 0C                        	MOV	DWORD [12+ECX],EAX
  1265 00000514 5D                              	POP	EBP
  1266 00000515 C3                              	RET
  1267 00000516                                 	GLOBAL	_draw_composing_char
  1268 00000516                                 _draw_composing_char:
  1269 00000516 55                              	PUSH	EBP
  1270 00000517 89 E5                           	MOV	EBP,ESP
  1271 00000519 57                              	PUSH	EDI
  1272 0000051A 56                              	PUSH	ESI
  1273 0000051B 53                              	PUSH	EBX
  1274 0000051C 53                              	PUSH	EBX
  1275 0000051D BB FFFF8000                     	MOV	EBX,-32768
  1276 00000522 8B 45 08                        	MOV	EAX,DWORD [8+EBP]
  1277 00000525 8B 15 00000FE8                  	MOV	EDX,DWORD [4072]
  1278 0000052B 89 55 F0                        	MOV	DWORD [-16+EBP],EDX
  1279 0000052E 8B 7D 14                        	MOV	EDI,DWORD [20+EBP]
  1280 00000531 8B 90 000000C4                  	MOV	EDX,DWORD [196+EAX]
  1281 00000537 8B 88 000000C8                  	MOV	ECX,DWORD [200+EAX]
  1282 0000053D 8B B0 000000CC                  	MOV	ESI,DWORD [204+EAX]
  1283 00000543 83 FA FF                        	CMP	EDX,-1
  1284 00000546 74 16                           	JE	L105
  1285 00000548 8A 82 [000000CA]                	MOV	AL,BYTE [_U2J_cho+EDX]
  1286 0000054E 83 E0 1F                        	AND	EAX,31
  1287 00000551 0F B6 C0                        	MOVZX	EAX,AL
  1288 00000554 C1 E0 0A                        	SAL	EAX,10
  1289 00000557 89 C3                           	MOV	EBX,EAX
  1290 00000559 66 81 CB 8000                   	OR	BX,-32768
  1291 0000055E                                 L105:
  1292 0000055E 83 F9 FF                        	CMP	ECX,-1
  1293 00000561 74 11                           	JE	L106
  1294 00000563 8A 81 [000000DD]                	MOV	AL,BYTE [_U2J_jung+ECX]
  1295 00000569 83 E0 1F                        	AND	EAX,31
  1296 0000056C 0F B6 C0                        	MOVZX	EAX,AL
  1297 0000056F C1 E0 05                        	SAL	EAX,5
  1298 00000572 09 C3                           	OR	EBX,EAX
  1299 00000574                                 L106:
  1300 00000574 83 FE FF                        	CMP	ESI,-1
  1301 00000577 74 0F                           	JE	L107
  1302 00000579 8A 86 [000000F2]                	MOV	AL,BYTE [_U2J_jong+ESI]
  1303 0000057F 83 E0 1F                        	AND	EAX,31
  1304 00000582 66 0F B6 C0                     	MOVZX	AX,AL
  1305 00000586 09 C3                           	OR	EBX,EAX
  1306 00000588                                 L107:
  1307 00000588 8D 47 0F                        	LEA	EAX,DWORD [15+EDI]
  1308 0000058B 8B 55 0C                        	MOV	EDX,DWORD [12+EBP]
  1309 0000058E 50                              	PUSH	EAX
  1310 0000058F 8B 45 10                        	MOV	EAX,DWORD [16+EBP]
  1311 00000592 83 C0 0F                        	ADD	EAX,15
  1312 00000595 50                              	PUSH	EAX
  1313 00000596 57                              	PUSH	EDI
  1314 00000597 FF 75 10                        	PUSH	DWORD [16+EBP]
  1315 0000059A 6A 00                           	PUSH	0
  1316 0000059C 8B 02                           	MOV	EAX,DWORD [EDX]
  1317 0000059E FF 70 04                        	PUSH	DWORD [4+EAX]
  1318 000005A1 FF 30                           	PUSH	DWORD [EAX]
  1319 000005A3 E8 [00000000]                   	CALL	_boxfill8
  1320 000005A8 8B 55 0C                        	MOV	EDX,DWORD [12+EBP]
  1321 000005AB 0F B7 C3                        	MOVZX	EAX,BX
  1322 000005AE 50                              	PUSH	EAX
  1323 000005AF FF 75 F0                        	PUSH	DWORD [-16+EBP]
  1324 000005B2 6A 07                           	PUSH	7
  1325 000005B4 57                              	PUSH	EDI
  1326 000005B5 FF 75 10                        	PUSH	DWORD [16+EBP]
  1327 000005B8 8B 02                           	MOV	EAX,DWORD [EDX]
  1328 000005BA FF 70 04                        	PUSH	DWORD [4+EAX]
  1329 000005BD FF 30                           	PUSH	DWORD [EAX]
  1330 000005BF E8 FFFFFA3C                     	CALL	_put_johab
  1331 000005C4 8D 47 10                        	LEA	EAX,DWORD [16+EDI]
  1332 000005C7 83 C4 38                        	ADD	ESP,56
  1333 000005CA 50                              	PUSH	EAX
  1334 000005CB 8B 45 10                        	MOV	EAX,DWORD [16+EBP]
  1335 000005CE 83 C0 10                        	ADD	EAX,16
  1336 000005D1 50                              	PUSH	EAX
  1337 000005D2 8B 45 0C                        	MOV	EAX,DWORD [12+EBP]
  1338 000005D5 57                              	PUSH	EDI
  1339 000005D6 FF 75 10                        	PUSH	DWORD [16+EBP]
  1340 000005D9 FF 30                           	PUSH	DWORD [EAX]
  1341 000005DB E8 [00000000]                   	CALL	_sheet_refresh
  1342 000005E0 8D 65 F4                        	LEA	ESP,DWORD [-12+EBP]
  1343 000005E3 5B                              	POP	EBX
  1344 000005E4 5E                              	POP	ESI
  1345 000005E5 5F                              	POP	EDI
  1346 000005E6 5D                              	POP	EBP
  1347 000005E7 C3                              	RET
  1348 000005E8                                 	GLOBAL	_flush_hangul_to_cmdline
  1349 000005E8                                 _flush_hangul_to_cmdline:
  1350 000005E8 55                              	PUSH	EBP
  1351 000005E9 B9 00000005                     	MOV	ECX,5
  1352 000005EE 89 E5                           	MOV	EBP,ESP
  1353 000005F0 57                              	PUSH	EDI
  1354 000005F1 56                              	PUSH	ESI
  1355 000005F2 53                              	PUSH	EBX
  1356 000005F3 8B 75 0C                        	MOV	ESI,DWORD [12+EBP]
  1357 000005F6 83 EC 14                        	SUB	ESP,20
  1358 000005F9 81 C6 000000C0                  	ADD	ESI,192
  1359 000005FF FC                              	CLD
  1360 00000600 89 E7                           	MOV	EDI,ESP
  1361 00000602 8B 5D 08                        	MOV	EBX,DWORD [8+EBP]
  1362 00000605 F3                              	REP
  1363 00000606 A5                              	MOVSD
  1364 00000607 8B 45 10                        	MOV	EAX,DWORD [16+EBP]
  1365 0000060A 03 43 14                        	ADD	EAX,DWORD [20+EBX]
  1366 0000060D 50                              	PUSH	EAX
  1367 0000060E E8 FFFFFC13                     	CALL	_johab_to_utf8
  1368 00000613 83 C4 18                        	ADD	ESP,24
  1369 00000616 0F B6 C0                        	MOVZX	EAX,AL
  1370 00000619 85 C0                           	TEST	EAX,EAX
  1371 0000061B 7E 03                           	JLE	L108
  1372 0000061D 01 43 14                        	ADD	DWORD [20+EBX],EAX
  1373 00000620                                 L108:
  1374 00000620 8D 65 F4                        	LEA	ESP,DWORD [-12+EBP]
  1375 00000623 5B                              	POP	EBX
  1376 00000624 5E                              	POP	ESI
  1377 00000625 5F                              	POP	EDI
  1378 00000626 5D                              	POP	EBP
  1379 00000627 C3                              	RET
  1380 00000628                                 	GLOBAL	_start_new_hangul
  1381 00000628                                 _start_new_hangul:
  1382 00000628 55                              	PUSH	EBP
  1383 00000629 89 E5                           	MOV	EBP,ESP
  1384 0000062B 56                              	PUSH	ESI
  1385 0000062C 53                              	PUSH	EBX
  1386 0000062D 8B 75 0C                        	MOV	ESI,DWORD [12+EBP]
  1387 00000630 8B 5D 08                        	MOV	EBX,DWORD [8+EBP]
  1388 00000633 83 BE 000000C0 00               	CMP	DWORD [192+ESI],0
  1389 0000063A 75 2A                           	JNE	L112
  1390 0000063C                                 L111:
  1391 0000063C FF 75 1C                        	PUSH	DWORD [28+EBP]
  1392 0000063F FF 75 18                        	PUSH	DWORD [24+EBP]
  1393 00000642 FF 75 14                        	PUSH	DWORD [20+EBP]
  1394 00000645 FF 75 10                        	PUSH	DWORD [16+EBP]
  1395 00000648 56                              	PUSH	ESI
  1396 00000649 E8 FFFFFE9F                     	CALL	_set_hangul
  1397 0000064E FF 73 08                        	PUSH	DWORD [8+EBX]
  1398 00000651 FF 73 04                        	PUSH	DWORD [4+EBX]
  1399 00000654 53                              	PUSH	EBX
  1400 00000655 56                              	PUSH	ESI
  1401 00000656 E8 FFFFFEBB                     	CALL	_draw_composing_char
  1402 0000065B 83 43 04 10                     	ADD	DWORD [4+EBX],16
  1403 0000065F 8D 65 F8                        	LEA	ESP,DWORD [-8+EBP]
  1404 00000662 5B                              	POP	EBX
  1405 00000663 5E                              	POP	ESI
  1406 00000664 5D                              	POP	EBP
  1407 00000665 C3                              	RET
  1408 00000666                                 L112:
  1409 00000666 FF 75 20                        	PUSH	DWORD [32+EBP]
  1410 00000669 56                              	PUSH	ESI
  1411 0000066A 53                              	PUSH	EBX
  1412 0000066B E8 FFFFFF78                     	CALL	_flush_hangul_to_cmdline
  1413 00000670 83 C4 0C                        	ADD	ESP,12
  1414 00000673 EB C7                           	JMP	L111
  1415 00000675                                 	GLOBAL	_update_prev_hangul
  1416 00000675                                 _update_prev_hangul:
  1417 00000675 55                              	PUSH	EBP
  1418 00000676 89 E5                           	MOV	EBP,ESP
  1419 00000678 56                              	PUSH	ESI
  1420 00000679 53                              	PUSH	EBX
  1421 0000067A 8B 5D 08                        	MOV	EBX,DWORD [8+EBP]
  1422 0000067D 8B 75 0C                        	MOV	ESI,DWORD [12+EBP]
  1423 00000680 FF 75 1C                        	PUSH	DWORD [28+EBP]
  1424 00000683 FF 75 18                        	PUSH	DWORD [24+EBP]
  1425 00000686 FF 75 14                        	PUSH	DWORD [20+EBP]
  1426 00000689 FF 75 10                        	PUSH	DWORD [16+EBP]
  1427 0000068C 56                              	PUSH	ESI
  1428 0000068D E8 FFFFFE5B                     	CALL	_set_hangul
  1429 00000692 8B 43 08                        	MOV	EAX,DWORD [8+EBX]
  1430 00000695 89 45 14                        	MOV	DWORD [20+EBP],EAX
  1431 00000698 83 C4 14                        	ADD	ESP,20
  1432 0000069B 8B 43 04                        	MOV	EAX,DWORD [4+EBX]
  1433 0000069E 89 75 08                        	MOV	DWORD [8+EBP],ESI
  1434 000006A1 83 E8 10                        	SUB	EAX,16
  1435 000006A4 89 5D 0C                        	MOV	DWORD [12+EBP],EBX
  1436 000006A7 89 45 10                        	MOV	DWORD [16+EBP],EAX
  1437 000006AA 8D 65 F8                        	LEA	ESP,DWORD [-8+EBP]
  1438 000006AD 5B                              	POP	EBX
  1439 000006AE 5E                              	POP	ESI
  1440 000006AF 5D                              	POP	EBP
  1441 000006B0 E9 FFFFFE61                     	JMP	_draw_composing_char
  1442 000006B5                                 	GLOBAL	_not_korean
  1443 000006B5                                 _not_korean:
  1444 000006B5 55                              	PUSH	EBP
  1445 000006B6 89 E5                           	MOV	EBP,ESP
  1446 000006B8 57                              	PUSH	EDI
  1447 000006B9 56                              	PUSH	ESI
  1448 000006BA 53                              	PUSH	EBX
  1449 000006BB 56                              	PUSH	ESI
  1450 000006BC 8B 75 08                        	MOV	ESI,DWORD [8+EBP]
  1451 000006BF 8B 5D 0C                        	MOV	EBX,DWORD [12+EBP]
  1452 000006C2 8B 7D 14                        	MOV	EDI,DWORD [20+EBP]
  1453 000006C5 83 7D 10 00                     	CMP	DWORD [16+EBP],0
  1454 000006C9 74 29                           	JE	L114
  1455 000006CB 83 BB 000000C0 00               	CMP	DWORD [192+EBX],0
  1456 000006D2 75 28                           	JNE	L117
  1457 000006D4                                 L116:
  1458 000006D4 8B 46 14                        	MOV	EAX,DWORD [20+ESI]
  1459 000006D7 8A 55 10                        	MOV	DL,BYTE [16+EBP]
  1460 000006DA 88 14 38                        	MOV	BYTE [EAX+EDI*1],DL
  1461 000006DD 8A 45 10                        	MOV	AL,BYTE [16+EBP]
  1462 000006E0 FF 46 14                        	INC	DWORD [20+ESI]
  1463 000006E3 88 45 F2                        	MOV	BYTE [-14+EBP],AL
  1464 000006E6 8D 45 F2                        	LEA	EAX,DWORD [-14+EBP]
  1465 000006E9 50                              	PUSH	EAX
  1466 000006EA 56                              	PUSH	ESI
  1467 000006EB C6 45 F3 00                     	MOV	BYTE [-13+EBP],0
  1468 000006EF E8 [00000000]                   	CALL	_cons_putstr
  1469 000006F4                                 L114:
  1470 000006F4 8D 65 F4                        	LEA	ESP,DWORD [-12+EBP]
  1471 000006F7 5B                              	POP	EBX
  1472 000006F8 5E                              	POP	ESI
  1473 000006F9 5F                              	POP	EDI
  1474 000006FA 5D                              	POP	EBP
  1475 000006FB C3                              	RET
  1476 000006FC                                 L117:
  1477 000006FC 57                              	PUSH	EDI
  1478 000006FD 53                              	PUSH	EBX
  1479 000006FE 56                              	PUSH	ESI
  1480 000006FF E8 FFFFFEE4                     	CALL	_flush_hangul_to_cmdline
  1481 00000704 6A FF                           	PUSH	-1
  1482 00000706 6A FF                           	PUSH	-1
  1483 00000708 6A FF                           	PUSH	-1
  1484 0000070A 6A 00                           	PUSH	0
  1485 0000070C 53                              	PUSH	EBX
  1486 0000070D E8 FFFFFDDB                     	CALL	_set_hangul
  1487 00000712 83 C4 20                        	ADD	ESP,32
  1488 00000715 EB BD                           	JMP	L116
  1489 00000717                                 	GLOBAL	_hangul_automata
  1490 00000717                                 _hangul_automata:
  1491 00000717 55                              	PUSH	EBP
  1492 00000718 89 E5                           	MOV	EBP,ESP
  1493 0000071A 57                              	PUSH	EDI
  1494 0000071B 56                              	PUSH	ESI
  1495 0000071C 53                              	PUSH	EBX
  1496 0000071D 83 EC 14                        	SUB	ESP,20
  1497 00000720 8B 4D 10                        	MOV	ECX,DWORD [16+EBP]
  1498 00000723 8B 45 08                        	MOV	EAX,DWORD [8+EBP]
  1499 00000726 8B 55 0C                        	MOV	EDX,DWORD [12+EBP]
  1500 00000729 89 45 F0                        	MOV	DWORD [-16+EBP],EAX
  1501 0000072C 0F BE D9                        	MOVSX	EBX,CL
  1502 0000072F 8B 45 14                        	MOV	EAX,DWORD [20+EBP]
  1503 00000732 89 55 EC                        	MOV	DWORD [-20+EBP],EDX
  1504 00000735 89 4D E8                        	MOV	DWORD [-24+EBP],ECX
  1505 00000738 89 45 E4                        	MOV	DWORD [-28+EBP],EAX
  1506 0000073B 53                              	PUSH	EBX
  1507 0000073C 89 D7                           	MOV	EDI,EDX
  1508 0000073E 81 C7 000000C0                  	ADD	EDI,192
  1509 00000744 E8 FFFFF9F4                     	CALL	_key2cho
  1510 00000749 53                              	PUSH	EBX
  1511 0000074A 89 C6                           	MOV	ESI,EAX
  1512 0000074C E8 FFFFFA07                     	CALL	_key2jung
  1513 00000751 89 45 E0                        	MOV	DWORD [-32+EBP],EAX
  1514 00000754 53                              	PUSH	EBX
  1515 00000755 E8 FFFFFA19                     	CALL	_key2jong
  1516 0000075A 8B 4D EC                        	MOV	ECX,DWORD [-20+EBP]
  1517 0000075D 83 C4 0C                        	ADD	ESP,12
  1518 00000760 8B 91 000000C0                  	MOV	EDX,DWORD [192+ECX]
  1519 00000766 83 FA 04                        	CMP	EDX,4
  1520 00000769 77 24                           	JA	L118
  1521 0000076B FF 24 95 [00000340]             	JMP	DWORD [L151+EDX*4]
  1522                                          [SECTION .data]
  1523 00000340                                 	ALIGNB	4
  1524 00000340                                 L151:
  1525 00000340 [00000772]                      	DD	L120
  1526 00000344 [000007CF]                      	DD	L125
  1527 00000348 [00000812]                      	DD	L130
  1528 0000034C [0000086D]                      	DD	L137
  1529 00000350 [00000909]                      	DD	L146
  1530                                          [SECTION .text]
  1531 00000772                                 L120:
  1532 00000772 83 FE FF                        	CMP	ESI,-1
  1533 00000775 74 20                           	JE	L161
  1534 00000777                                 L155:
  1535 00000777 FF 75 E4                        	PUSH	DWORD [-28+EBP]
  1536 0000077A 6A FF                           	PUSH	-1
  1537 0000077C 6A FF                           	PUSH	-1
  1538 0000077E 56                              	PUSH	ESI
  1539 0000077F 6A 01                           	PUSH	1
  1540 00000781                                 L153:
  1541 00000781 FF 75 EC                        	PUSH	DWORD [-20+EBP]
  1542 00000784 FF 75 F0                        	PUSH	DWORD [-16+EBP]
  1543 00000787 E8 FFFFFE9C                     	CALL	_start_new_hangul
  1544 0000078C 83 C4 1C                        	ADD	ESP,28
  1545 0000078F                                 L118:
  1546 0000078F 8D 65 F4                        	LEA	ESP,DWORD [-12+EBP]
  1547 00000792 5B                              	POP	EBX
  1548 00000793 5E                              	POP	ESI
  1549 00000794 5F                              	POP	EDI
  1550 00000795 5D                              	POP	EBP
  1551 00000796 C3                              	RET
  1552 00000797                                 L161:
  1553 00000797 83 7D E0 FF                     	CMP	DWORD [-32+EBP],-1
  1554 0000079B 74 0E                           	JE	L149
  1555 0000079D FF 75 E4                        	PUSH	DWORD [-28+EBP]
  1556 000007A0 6A FF                           	PUSH	-1
  1557 000007A2 FF 75 E0                        	PUSH	DWORD [-32+EBP]
  1558 000007A5                                 L156:
  1559 000007A5 6A FF                           	PUSH	-1
  1560 000007A7 6A 00                           	PUSH	0
  1561 000007A9 EB D6                           	JMP	L153
  1562 000007AB                                 L149:
  1563 000007AB 8B 45 E4                        	MOV	EAX,DWORD [-28+EBP]
  1564 000007AE 8B 55 E8                        	MOV	EDX,DWORD [-24+EBP]
  1565 000007B1 89 45 14                        	MOV	DWORD [20+EBP],EAX
  1566 000007B4 8B 4D EC                        	MOV	ECX,DWORD [-20+EBP]
  1567 000007B7 8B 45 F0                        	MOV	EAX,DWORD [-16+EBP]
  1568 000007BA 89 55 10                        	MOV	DWORD [16+EBP],EDX
  1569 000007BD 89 4D 0C                        	MOV	DWORD [12+EBP],ECX
  1570 000007C0 89 45 08                        	MOV	DWORD [8+EBP],EAX
  1571 000007C3                                 L159:
  1572 000007C3 8D 65 F4                        	LEA	ESP,DWORD [-12+EBP]
  1573 000007C6 5B                              	POP	EBX
  1574 000007C7 5E                              	POP	ESI
  1575 000007C8 5F                              	POP	EDI
  1576 000007C9 5D                              	POP	EBP
  1577 000007CA E9 FFFFFEE6                     	JMP	_not_korean
  1578 000007CF                                 L125:
  1579 000007CF 83 7D E0 FF                     	CMP	DWORD [-32+EBP],-1
  1580 000007D3 74 1A                           	JE	L126
  1581 000007D5 6A FF                           	PUSH	-1
  1582 000007D7 FF 75 E0                        	PUSH	DWORD [-32+EBP]
  1583 000007DA                                 L160:
  1584 000007DA FF 77 04                        	PUSH	DWORD [4+EDI]
  1585 000007DD 6A 02                           	PUSH	2
  1586 000007DF                                 L154:
  1587 000007DF FF 75 EC                        	PUSH	DWORD [-20+EBP]
  1588 000007E2 FF 75 F0                        	PUSH	DWORD [-16+EBP]
  1589 000007E5 E8 FFFFFE8B                     	CALL	_update_prev_hangul
  1590 000007EA 83 C4 18                        	ADD	ESP,24
  1591 000007ED EB A0                           	JMP	L118
  1592 000007EF                                 L126:
  1593 000007EF 83 FE FF                        	CMP	ESI,-1
  1594 000007F2 0F 85 FFFFFF7F                  	JNE	L155
  1595 000007F8 8B 55 E4                        	MOV	EDX,DWORD [-28+EBP]
  1596 000007FB 8B 4D E8                        	MOV	ECX,DWORD [-24+EBP]
  1597 000007FE 89 55 14                        	MOV	DWORD [20+EBP],EDX
  1598 00000801 8B 45 EC                        	MOV	EAX,DWORD [-20+EBP]
  1599 00000804 8B 55 F0                        	MOV	EDX,DWORD [-16+EBP]
  1600 00000807 89 4D 10                        	MOV	DWORD [16+EBP],ECX
  1601 0000080A 89 45 0C                        	MOV	DWORD [12+EBP],EAX
  1602 0000080D 89 55 08                        	MOV	DWORD [8+EBP],EDX
  1603 00000810 EB B1                           	JMP	L159
  1604 00000812                                 L130:
  1605 00000812 83 F8 FF                        	CMP	EAX,-1
  1606 00000815 74 0B                           	JE	L131
  1607 00000817 50                              	PUSH	EAX
  1608 00000818 FF 77 08                        	PUSH	DWORD [8+EDI]
  1609 0000081B FF 77 04                        	PUSH	DWORD [4+EDI]
  1610 0000081E 6A 03                           	PUSH	3
  1611 00000820 EB BD                           	JMP	L154
  1612 00000822                                 L131:
  1613 00000822 83 7D E0 FF                     	CMP	DWORD [-32+EBP],-1
  1614 00000826 74 28                           	JE	L142
  1615 00000828 FF 75 E0                        	PUSH	DWORD [-32+EBP]
  1616 0000082B FF 77 08                        	PUSH	DWORD [8+EDI]
  1617 0000082E E8 FFFFFAFC                     	CALL	_get_composite_jung
  1618 00000833 5B                              	POP	EBX
  1619 00000834 5E                              	POP	ESI
  1620 00000835 83 F8 FF                        	CMP	EAX,-1
  1621 00000838 74 05                           	JE	L134
  1622 0000083A 6A FF                           	PUSH	-1
  1623 0000083C 50                              	PUSH	EAX
  1624 0000083D EB 9B                           	JMP	L160
  1625 0000083F                                 L134:
  1626 0000083F FF 75 E4                        	PUSH	DWORD [-28+EBP]
  1627 00000842 6A FF                           	PUSH	-1
  1628 00000844 FF 75 E0                        	PUSH	DWORD [-32+EBP]
  1629 00000847 6A FF                           	PUSH	-1
  1630 00000849                                 L158:
  1631 00000849 6A 02                           	PUSH	2
  1632 0000084B E9 FFFFFF31                     	JMP	L153
  1633 00000850                                 L142:
  1634 00000850 8B 4D E4                        	MOV	ECX,DWORD [-28+EBP]
  1635 00000853 8B 45 E8                        	MOV	EAX,DWORD [-24+EBP]
  1636 00000856 89 4D 14                        	MOV	DWORD [20+EBP],ECX
  1637 00000859 8B 55 EC                        	MOV	EDX,DWORD [-20+EBP]
  1638 0000085C 8B 4D F0                        	MOV	ECX,DWORD [-16+EBP]
  1639 0000085F 89 45 10                        	MOV	DWORD [16+EBP],EAX
  1640 00000862 89 55 0C                        	MOV	DWORD [12+EBP],EDX
  1641 00000865 89 4D 08                        	MOV	DWORD [8+EBP],ECX
  1642 00000868 E9 FFFFFF56                     	JMP	L159
  1643 0000086D                                 L137:
  1644 0000086D 83 7D E0 FF                     	CMP	DWORD [-32+EBP],-1
  1645 00000871 74 3E                           	JE	L138
  1646 00000873 8B 5F 0C                        	MOV	EBX,DWORD [12+EDI]
  1647 00000876 6A FF                           	PUSH	-1
  1648 00000878 FF 77 08                        	PUSH	DWORD [8+EDI]
  1649 0000087B FF 77 04                        	PUSH	DWORD [4+EDI]
  1650 0000087E 6A 02                           	PUSH	2
  1651 00000880 FF 75 EC                        	PUSH	DWORD [-20+EBP]
  1652 00000883 FF 75 F0                        	PUSH	DWORD [-16+EBP]
  1653 00000886 E8 FFFFFDEA                     	CALL	_update_prev_hangul
  1654 0000088B 83 C4 18                        	ADD	ESP,24
  1655 0000088E 8B 04 9D [0000028E]             	MOV	EAX,DWORD [_jong2cho+EBX*4]
  1656 00000895 83 F8 FF                        	CMP	EAX,-1
  1657 00000898 74 0B                           	JE	L139
  1658 0000089A FF 75 E4                        	PUSH	DWORD [-28+EBP]
  1659 0000089D 6A FF                           	PUSH	-1
  1660 0000089F FF 75 E0                        	PUSH	DWORD [-32+EBP]
  1661 000008A2 50                              	PUSH	EAX
  1662 000008A3 EB A4                           	JMP	L158
  1663 000008A5                                 L139:
  1664 000008A5 FF 75 E4                        	PUSH	DWORD [-28+EBP]
  1665 000008A8 6A FF                           	PUSH	-1
  1666 000008AA 6A FF                           	PUSH	-1
  1667 000008AC E9 FFFFFEF4                     	JMP	L156
  1668 000008B1                                 L138:
  1669 000008B1 83 FE FF                        	CMP	ESI,-1
  1670 000008B4 74 9A                           	JE	L142
  1671 000008B6 56                              	PUSH	ESI
  1672 000008B7 FF 77 0C                        	PUSH	DWORD [12+EDI]
  1673 000008BA E8 FFFFFB09                     	CALL	_get_composite_jong
  1674 000008BF 5A                              	POP	EDX
  1675 000008C0 59                              	POP	ECX
  1676 000008C1 83 F8 FF                        	CMP	EAX,-1
  1677 000008C4 74 0E                           	JE	L143
  1678 000008C6 50                              	PUSH	EAX
  1679 000008C7 FF 77 08                        	PUSH	DWORD [8+EDI]
  1680 000008CA FF 77 04                        	PUSH	DWORD [4+EDI]
  1681 000008CD 6A 04                           	PUSH	4
  1682 000008CF E9 FFFFFF0B                     	JMP	L154
  1683 000008D4                                 L143:
  1684 000008D4 8B 45 F0                        	MOV	EAX,DWORD [-16+EBP]
  1685 000008D7 89 C2                           	MOV	EDX,EAX
  1686 000008D9 FF 70 08                        	PUSH	DWORD [8+EAX]
  1687 000008DC 8B 40 04                        	MOV	EAX,DWORD [4+EAX]
  1688 000008DF 83 E8 10                        	SUB	EAX,16
  1689 000008E2 50                              	PUSH	EAX
  1690 000008E3 52                              	PUSH	EDX
  1691 000008E4 FF 75 EC                        	PUSH	DWORD [-20+EBP]
  1692 000008E7 E8 FFFFFC2A                     	CALL	_draw_composing_char
  1693 000008EC FF 75 E4                        	PUSH	DWORD [-28+EBP]
  1694 000008EF 6A FF                           	PUSH	-1
  1695 000008F1 6A FF                           	PUSH	-1
  1696 000008F3 56                              	PUSH	ESI
  1697 000008F4 6A 01                           	PUSH	1
  1698 000008F6 FF 75 EC                        	PUSH	DWORD [-20+EBP]
  1699 000008F9 FF 75 F0                        	PUSH	DWORD [-16+EBP]
  1700 000008FC E8 FFFFFD27                     	CALL	_start_new_hangul
  1701 00000901 83 C4 2C                        	ADD	ESP,44
  1702 00000904 E9 FFFFFE86                     	JMP	L118
  1703 00000909                                 L146:
  1704 00000909 83 7D E0 FF                     	CMP	DWORD [-32+EBP],-1
  1705 0000090D 74 38                           	JE	L147
  1706 0000090F 8B 5F 0C                        	MOV	EBX,DWORD [12+EDI]
  1707 00000912 53                              	PUSH	EBX
  1708 00000913 E8 FFFFFB4B                     	CALL	_get_first_jong
  1709 00000918 53                              	PUSH	EBX
  1710 00000919 89 C6                           	MOV	ESI,EAX
  1711 0000091B E8 FFFFFB7E                     	CALL	_get_second_jong
  1712 00000920 56                              	PUSH	ESI
  1713 00000921 89 C3                           	MOV	EBX,EAX
  1714 00000923 FF 77 08                        	PUSH	DWORD [8+EDI]
  1715 00000926 FF 77 04                        	PUSH	DWORD [4+EDI]
  1716 00000929 6A 03                           	PUSH	3
  1717 0000092B FF 75 EC                        	PUSH	DWORD [-20+EBP]
  1718 0000092E FF 75 F0                        	PUSH	DWORD [-16+EBP]
  1719 00000931 E8 FFFFFD3F                     	CALL	_update_prev_hangul
  1720 00000936 83 C4 20                        	ADD	ESP,32
  1721 00000939 FF 75 E4                        	PUSH	DWORD [-28+EBP]
  1722 0000093C 6A FF                           	PUSH	-1
  1723 0000093E FF 75 E0                        	PUSH	DWORD [-32+EBP]
  1724 00000941 53                              	PUSH	EBX
  1725 00000942 E9 FFFFFF02                     	JMP	L158
  1726 00000947                                 L147:
  1727 00000947 83 FE FF                        	CMP	ESI,-1
  1728 0000094A 0F 85 FFFFFE27                  	JNE	L155
  1729 00000950 E9 FFFFFE56                     	JMP	L149
  1730 00000955                                 	GLOBAL	_hangul_automata_delete
  1731 00000955                                 _hangul_automata_delete:
  1732 00000955 55                              	PUSH	EBP
  1733 00000956 31 C0                           	XOR	EAX,EAX
  1734 00000958 89 E5                           	MOV	EBP,ESP
  1735 0000095A 57                              	PUSH	EDI
  1736 0000095B 56                              	PUSH	ESI
  1737 0000095C 8B 7D 0C                        	MOV	EDI,DWORD [12+EBP]
  1738 0000095F 53                              	PUSH	EBX
  1739 00000960 8B 75 08                        	MOV	ESI,DWORD [8+EBP]
  1740 00000963 8B 97 000000C0                  	MOV	EDX,DWORD [192+EDI]
  1741 00000969 8D 9F 000000C0                  	LEA	EBX,DWORD [192+EDI]
  1742 0000096F 85 D2                           	TEST	EDX,EDX
  1743 00000971 74 64                           	JE	L162
  1744 00000973 83 FA 02                        	CMP	EDX,2
  1745 00000976 0F 84 000000D7                  	JE	L166
  1746 0000097C 83 FA 02                        	CMP	EDX,2
  1747 0000097F 0F 8F 0000009F                  	JG	L173
  1748 00000985 4A                              	DEC	EDX
  1749 00000986 0F 84 00000082                  	JE	L165
  1750 0000098C                                 L164:
  1751 0000098C 83 3B 00                        	CMP	DWORD [EBX],0
  1752 0000098F 75 4E                           	JNE	L174
  1753 00000991 8B 4E 08                        	MOV	ECX,DWORD [8+ESI]
  1754 00000994 8D 41 0F                        	LEA	EAX,DWORD [15+ECX]
  1755 00000997 50                              	PUSH	EAX
  1756 00000998 8B 46 04                        	MOV	EAX,DWORD [4+ESI]
  1757 0000099B 8D 50 FF                        	LEA	EDX,DWORD [-1+EAX]
  1758 0000099E 83 E8 10                        	SUB	EAX,16
  1759 000009A1 52                              	PUSH	EDX
  1760 000009A2 51                              	PUSH	ECX
  1761 000009A3 50                              	PUSH	EAX
  1762 000009A4 6A 00                           	PUSH	0
  1763 000009A6 8B 06                           	MOV	EAX,DWORD [ESI]
  1764 000009A8 FF 70 04                        	PUSH	DWORD [4+EAX]
  1765 000009AB FF 30                           	PUSH	DWORD [EAX]
  1766 000009AD E8 [00000000]                   	CALL	_boxfill8
  1767 000009B2 8B 56 08                        	MOV	EDX,DWORD [8+ESI]
  1768 000009B5 8D 42 10                        	LEA	EAX,DWORD [16+EDX]
  1769 000009B8 50                              	PUSH	EAX
  1770 000009B9 FF 76 04                        	PUSH	DWORD [4+ESI]
  1771 000009BC 52                              	PUSH	EDX
  1772 000009BD 8B 46 04                        	MOV	EAX,DWORD [4+ESI]
  1773 000009C0 83 E8 10                        	SUB	EAX,16
  1774 000009C3 50                              	PUSH	EAX
  1775 000009C4 FF 36                           	PUSH	DWORD [ESI]
  1776 000009C6 E8 [00000000]                   	CALL	_sheet_refresh
  1777 000009CB 83 C4 30                        	ADD	ESP,48
  1778 000009CE 83 6E 04 10                     	SUB	DWORD [4+ESI],16
  1779 000009D2                                 L175:
  1780 000009D2 B8 00000001                     	MOV	EAX,1
  1781 000009D7                                 L162:
  1782 000009D7 8D 65 F4                        	LEA	ESP,DWORD [-12+EBP]
  1783 000009DA 5B                              	POP	EBX
  1784 000009DB 5E                              	POP	ESI
  1785 000009DC 5F                              	POP	EDI
  1786 000009DD 5D                              	POP	EBP
  1787 000009DE C3                              	RET
  1788 000009DF                                 L174:
  1789 000009DF FF 76 08                        	PUSH	DWORD [8+ESI]
  1790 000009E2 8B 46 04                        	MOV	EAX,DWORD [4+ESI]
  1791 000009E5 83 E8 10                        	SUB	EAX,16
  1792 000009E8 50                              	PUSH	EAX
  1793 000009E9 56                              	PUSH	ESI
  1794 000009EA 57                              	PUSH	EDI
  1795 000009EB E8 FFFFFB26                     	CALL	_draw_composing_char
  1796 000009F0 8B 56 08                        	MOV	EDX,DWORD [8+ESI]
  1797 000009F3 8D 42 10                        	LEA	EAX,DWORD [16+EDX]
  1798 000009F6 50                              	PUSH	EAX
  1799 000009F7 FF 76 04                        	PUSH	DWORD [4+ESI]
  1800 000009FA 52                              	PUSH	EDX
  1801 000009FB 8B 46 04                        	MOV	EAX,DWORD [4+ESI]
  1802 000009FE 83 E8 10                        	SUB	EAX,16
  1803 00000A01 50                              	PUSH	EAX
  1804 00000A02 FF 36                           	PUSH	DWORD [ESI]
  1805 00000A04 E8 [00000000]                   	CALL	_sheet_refresh
  1806 00000A09 83 C4 24                        	ADD	ESP,36
  1807 00000A0C EB C4                           	JMP	L175
  1808 00000A0E                                 L165:
  1809 00000A0E 6A FF                           	PUSH	-1
  1810 00000A10 6A FF                           	PUSH	-1
  1811 00000A12 6A FF                           	PUSH	-1
  1812 00000A14 6A 00                           	PUSH	0
  1813 00000A16                                 L176:
  1814 00000A16 57                              	PUSH	EDI
  1815 00000A17 E8 FFFFFAD1                     	CALL	_set_hangul
  1816 00000A1C 83 C4 14                        	ADD	ESP,20
  1817 00000A1F E9 FFFFFF68                     	JMP	L164
  1818 00000A24                                 L173:
  1819 00000A24 83 FA 03                        	CMP	EDX,3
  1820 00000A27 74 1E                           	JE	L169
  1821 00000A29 83 FA 04                        	CMP	EDX,4
  1822 00000A2C 0F 85 FFFFFF5A                  	JNE	L164
  1823 00000A32 FF 73 0C                        	PUSH	DWORD [12+EBX]
  1824 00000A35 E8 FFFFFA29                     	CALL	_get_first_jong
  1825 00000A3A 89 04 24                        	MOV	DWORD [ESP],EAX
  1826 00000A3D FF 73 08                        	PUSH	DWORD [8+EBX]
  1827 00000A40 FF 73 04                        	PUSH	DWORD [4+EBX]
  1828 00000A43 6A 03                           	PUSH	3
  1829 00000A45 EB CF                           	JMP	L176
  1830 00000A47                                 L169:
  1831 00000A47 6A FF                           	PUSH	-1
  1832 00000A49 FF 73 08                        	PUSH	DWORD [8+EBX]
  1833 00000A4C                                 L177:
  1834 00000A4C FF 73 04                        	PUSH	DWORD [4+EBX]
  1835 00000A4F 6A 02                           	PUSH	2
  1836 00000A51 EB C3                           	JMP	L176
  1837 00000A53                                 L166:
  1838 00000A53 FF 73 08                        	PUSH	DWORD [8+EBX]
  1839 00000A56 E8 FFFFF93C                     	CALL	_split_composite_jung
  1840 00000A5B 5A                              	POP	EDX
  1841 00000A5C 83 F8 FF                        	CMP	EAX,-1
  1842 00000A5F 74 05                           	JE	L167
  1843 00000A61 6A FF                           	PUSH	-1
  1844 00000A63 50                              	PUSH	EAX
  1845 00000A64 EB E6                           	JMP	L177
  1846 00000A66                                 L167:
  1847 00000A66 6A FF                           	PUSH	-1
  1848 00000A68 6A FF                           	PUSH	-1
  1849 00000A6A FF 73 04                        	PUSH	DWORD [4+EBX]
  1850 00000A6D 6A 01                           	PUSH	1
  1851 00000A6F EB A5                           	JMP	L176
